
bomb：     文件格式 elf32-i386


Disassembly of section .init:

080486f4 <_init>:
 80486f4:	53                   	push   %ebx
 80486f5:	83 ec 08             	sub    $0x8,%esp
 80486f8:	e8 13 02 00 00       	call   8048910 <__x86.get_pc_thunk.bx>
 80486fd:	81 c3 03 39 00 00    	add    $0x3903,%ebx
 8048703:	8b 83 fc ff ff ff    	mov    -0x4(%ebx),%eax
 8048709:	85 c0                	test   %eax,%eax
 804870b:	74 05                	je     8048712 <_init+0x1e>
 804870d:	e8 be 01 00 00       	call   80488d0 <__gmon_start__@plt>
 8048712:	83 c4 08             	add    $0x8,%esp
 8048715:	5b                   	pop    %ebx
 8048716:	c3                   	ret    

Disassembly of section .plt:

08048720 <.plt>:
 8048720:	ff 35 04 c0 04 08    	pushl  0x804c004
 8048726:	ff 25 08 c0 04 08    	jmp    *0x804c008
 804872c:	00 00                	add    %al,(%eax)
	...

08048730 <read@plt>:
 8048730:	ff 25 0c c0 04 08    	jmp    *0x804c00c
 8048736:	68 00 00 00 00       	push   $0x0
 804873b:	e9 e0 ff ff ff       	jmp    8048720 <.plt>

08048740 <fflush@plt>:
 8048740:	ff 25 10 c0 04 08    	jmp    *0x804c010
 8048746:	68 08 00 00 00       	push   $0x8
 804874b:	e9 d0 ff ff ff       	jmp    8048720 <.plt>

08048750 <fgets@plt>:
 8048750:	ff 25 14 c0 04 08    	jmp    *0x804c014
 8048756:	68 10 00 00 00       	push   $0x10
 804875b:	e9 c0 ff ff ff       	jmp    8048720 <.plt>

08048760 <signal@plt>:
 8048760:	ff 25 18 c0 04 08    	jmp    *0x804c018
 8048766:	68 18 00 00 00       	push   $0x18
 804876b:	e9 b0 ff ff ff       	jmp    8048720 <.plt>

08048770 <sleep@plt>:
 8048770:	ff 25 1c c0 04 08    	jmp    *0x804c01c
 8048776:	68 20 00 00 00       	push   $0x20
 804877b:	e9 a0 ff ff ff       	jmp    8048720 <.plt>

08048780 <alarm@plt>:
 8048780:	ff 25 20 c0 04 08    	jmp    *0x804c020
 8048786:	68 28 00 00 00       	push   $0x28
 804878b:	e9 90 ff ff ff       	jmp    8048720 <.plt>

08048790 <__stack_chk_fail@plt>:
 8048790:	ff 25 24 c0 04 08    	jmp    *0x804c024
 8048796:	68 30 00 00 00       	push   $0x30
 804879b:	e9 80 ff ff ff       	jmp    8048720 <.plt>

080487a0 <strcpy@plt>:
 80487a0:	ff 25 28 c0 04 08    	jmp    *0x804c028
 80487a6:	68 38 00 00 00       	push   $0x38
 80487ab:	e9 70 ff ff ff       	jmp    8048720 <.plt>

080487b0 <getenv@plt>:
 80487b0:	ff 25 2c c0 04 08    	jmp    *0x804c02c
 80487b6:	68 40 00 00 00       	push   $0x40
 80487bb:	e9 60 ff ff ff       	jmp    8048720 <.plt>

080487c0 <puts@plt>:
 80487c0:	ff 25 30 c0 04 08    	jmp    *0x804c030
 80487c6:	68 48 00 00 00       	push   $0x48
 80487cb:	e9 50 ff ff ff       	jmp    8048720 <.plt>

080487d0 <__memmove_chk@plt>:
 80487d0:	ff 25 34 c0 04 08    	jmp    *0x804c034
 80487d6:	68 50 00 00 00       	push   $0x50
 80487db:	e9 40 ff ff ff       	jmp    8048720 <.plt>

080487e0 <exit@plt>:
 80487e0:	ff 25 38 c0 04 08    	jmp    *0x804c038
 80487e6:	68 58 00 00 00       	push   $0x58
 80487eb:	e9 30 ff ff ff       	jmp    8048720 <.plt>

080487f0 <__libc_start_main@plt>:
 80487f0:	ff 25 3c c0 04 08    	jmp    *0x804c03c
 80487f6:	68 60 00 00 00       	push   $0x60
 80487fb:	e9 20 ff ff ff       	jmp    8048720 <.plt>

08048800 <write@plt>:
 8048800:	ff 25 40 c0 04 08    	jmp    *0x804c040
 8048806:	68 68 00 00 00       	push   $0x68
 804880b:	e9 10 ff ff ff       	jmp    8048720 <.plt>

08048810 <__isoc99_sscanf@plt>:
 8048810:	ff 25 44 c0 04 08    	jmp    *0x804c044
 8048816:	68 70 00 00 00       	push   $0x70
 804881b:	e9 00 ff ff ff       	jmp    8048720 <.plt>

08048820 <fopen@plt>:
 8048820:	ff 25 48 c0 04 08    	jmp    *0x804c048
 8048826:	68 78 00 00 00       	push   $0x78
 804882b:	e9 f0 fe ff ff       	jmp    8048720 <.plt>

08048830 <__errno_location@plt>:
 8048830:	ff 25 4c c0 04 08    	jmp    *0x804c04c
 8048836:	68 80 00 00 00       	push   $0x80
 804883b:	e9 e0 fe ff ff       	jmp    8048720 <.plt>

08048840 <__printf_chk@plt>:
 8048840:	ff 25 50 c0 04 08    	jmp    *0x804c050
 8048846:	68 88 00 00 00       	push   $0x88
 804884b:	e9 d0 fe ff ff       	jmp    8048720 <.plt>

08048850 <socket@plt>:
 8048850:	ff 25 54 c0 04 08    	jmp    *0x804c054
 8048856:	68 90 00 00 00       	push   $0x90
 804885b:	e9 c0 fe ff ff       	jmp    8048720 <.plt>

08048860 <__fprintf_chk@plt>:
 8048860:	ff 25 58 c0 04 08    	jmp    *0x804c058
 8048866:	68 98 00 00 00       	push   $0x98
 804886b:	e9 b0 fe ff ff       	jmp    8048720 <.plt>

08048870 <gethostbyname@plt>:
 8048870:	ff 25 5c c0 04 08    	jmp    *0x804c05c
 8048876:	68 a0 00 00 00       	push   $0xa0
 804887b:	e9 a0 fe ff ff       	jmp    8048720 <.plt>

08048880 <strtol@plt>:
 8048880:	ff 25 60 c0 04 08    	jmp    *0x804c060
 8048886:	68 a8 00 00 00       	push   $0xa8
 804888b:	e9 90 fe ff ff       	jmp    8048720 <.plt>

08048890 <connect@plt>:
 8048890:	ff 25 64 c0 04 08    	jmp    *0x804c064
 8048896:	68 b0 00 00 00       	push   $0xb0
 804889b:	e9 80 fe ff ff       	jmp    8048720 <.plt>

080488a0 <close@plt>:
 80488a0:	ff 25 68 c0 04 08    	jmp    *0x804c068
 80488a6:	68 b8 00 00 00       	push   $0xb8
 80488ab:	e9 70 fe ff ff       	jmp    8048720 <.plt>

080488b0 <__ctype_b_loc@plt>:
 80488b0:	ff 25 6c c0 04 08    	jmp    *0x804c06c
 80488b6:	68 c0 00 00 00       	push   $0xc0
 80488bb:	e9 60 fe ff ff       	jmp    8048720 <.plt>

080488c0 <__sprintf_chk@plt>:
 80488c0:	ff 25 70 c0 04 08    	jmp    *0x804c070
 80488c6:	68 c8 00 00 00       	push   $0xc8
 80488cb:	e9 50 fe ff ff       	jmp    8048720 <.plt>

Disassembly of section .plt.got:

080488d0 <__gmon_start__@plt>:
 80488d0:	ff 25 fc bf 04 08    	jmp    *0x804bffc
 80488d6:	66 90                	xchg   %ax,%ax

Disassembly of section .text:

080488e0 <_start>:
 80488e0:	31 ed                	xor    %ebp,%ebp
 80488e2:	5e                   	pop    %esi
 80488e3:	89 e1                	mov    %esp,%ecx
 80488e5:	83 e4 f0             	and    $0xfffffff0,%esp
 80488e8:	50                   	push   %eax
 80488e9:	54                   	push   %esp
 80488ea:	52                   	push   %edx
 80488eb:	68 40 9e 04 08       	push   $0x8049e40
 80488f0:	68 e0 9d 04 08       	push   $0x8049de0
 80488f5:	51                   	push   %ecx
 80488f6:	56                   	push   %esi
 80488f7:	68 db 89 04 08       	push   $0x80489db
 80488fc:	e8 ef fe ff ff       	call   80487f0 <__libc_start_main@plt>
 8048901:	f4                   	hlt    
 8048902:	66 90                	xchg   %ax,%ax
 8048904:	66 90                	xchg   %ax,%ax
 8048906:	66 90                	xchg   %ax,%ax
 8048908:	66 90                	xchg   %ax,%ax
 804890a:	66 90                	xchg   %ax,%ax
 804890c:	66 90                	xchg   %ax,%ax
 804890e:	66 90                	xchg   %ax,%ax

08048910 <__x86.get_pc_thunk.bx>:
 8048910:	8b 1c 24             	mov    (%esp),%ebx
 8048913:	c3                   	ret    
 8048914:	66 90                	xchg   %ax,%ax
 8048916:	66 90                	xchg   %ax,%ax
 8048918:	66 90                	xchg   %ax,%ax
 804891a:	66 90                	xchg   %ax,%ax
 804891c:	66 90                	xchg   %ax,%ax
 804891e:	66 90                	xchg   %ax,%ax

08048920 <deregister_tm_clones>:
 8048920:	b8 a3 c3 04 08       	mov    $0x804c3a3,%eax
 8048925:	2d a0 c3 04 08       	sub    $0x804c3a0,%eax
 804892a:	83 f8 06             	cmp    $0x6,%eax
 804892d:	76 1a                	jbe    8048949 <deregister_tm_clones+0x29>
 804892f:	b8 00 00 00 00       	mov    $0x0,%eax
 8048934:	85 c0                	test   %eax,%eax
 8048936:	74 11                	je     8048949 <deregister_tm_clones+0x29>
 8048938:	55                   	push   %ebp
 8048939:	89 e5                	mov    %esp,%ebp
 804893b:	83 ec 14             	sub    $0x14,%esp
 804893e:	68 a0 c3 04 08       	push   $0x804c3a0
 8048943:	ff d0                	call   *%eax
 8048945:	83 c4 10             	add    $0x10,%esp
 8048948:	c9                   	leave  
 8048949:	f3 c3                	repz ret 
 804894b:	90                   	nop
 804894c:	8d 74 26 00          	lea    0x0(%esi,%eiz,1),%esi

08048950 <register_tm_clones>:
 8048950:	b8 a0 c3 04 08       	mov    $0x804c3a0,%eax
 8048955:	2d a0 c3 04 08       	sub    $0x804c3a0,%eax
 804895a:	c1 f8 02             	sar    $0x2,%eax
 804895d:	89 c2                	mov    %eax,%edx
 804895f:	c1 ea 1f             	shr    $0x1f,%edx
 8048962:	01 d0                	add    %edx,%eax
 8048964:	d1 f8                	sar    %eax
 8048966:	74 1b                	je     8048983 <register_tm_clones+0x33>
 8048968:	ba 00 00 00 00       	mov    $0x0,%edx
 804896d:	85 d2                	test   %edx,%edx
 804896f:	74 12                	je     8048983 <register_tm_clones+0x33>
 8048971:	55                   	push   %ebp
 8048972:	89 e5                	mov    %esp,%ebp
 8048974:	83 ec 10             	sub    $0x10,%esp
 8048977:	50                   	push   %eax
 8048978:	68 a0 c3 04 08       	push   $0x804c3a0
 804897d:	ff d2                	call   *%edx
 804897f:	83 c4 10             	add    $0x10,%esp
 8048982:	c9                   	leave  
 8048983:	f3 c3                	repz ret 
 8048985:	8d 74 26 00          	lea    0x0(%esi,%eiz,1),%esi
 8048989:	8d bc 27 00 00 00 00 	lea    0x0(%edi,%eiz,1),%edi

08048990 <__do_global_dtors_aux>:
 8048990:	80 3d c8 c3 04 08 00 	cmpb   $0x0,0x804c3c8
 8048997:	75 13                	jne    80489ac <__do_global_dtors_aux+0x1c>
 8048999:	55                   	push   %ebp
 804899a:	89 e5                	mov    %esp,%ebp
 804899c:	83 ec 08             	sub    $0x8,%esp
 804899f:	e8 7c ff ff ff       	call   8048920 <deregister_tm_clones>
 80489a4:	c6 05 c8 c3 04 08 01 	movb   $0x1,0x804c3c8
 80489ab:	c9                   	leave  
 80489ac:	f3 c3                	repz ret 
 80489ae:	66 90                	xchg   %ax,%ax

080489b0 <frame_dummy>:
 80489b0:	b8 10 bf 04 08       	mov    $0x804bf10,%eax
 80489b5:	8b 10                	mov    (%eax),%edx
 80489b7:	85 d2                	test   %edx,%edx
 80489b9:	75 05                	jne    80489c0 <frame_dummy+0x10>
 80489bb:	eb 93                	jmp    8048950 <register_tm_clones>
 80489bd:	8d 76 00             	lea    0x0(%esi),%esi
 80489c0:	ba 00 00 00 00       	mov    $0x0,%edx
 80489c5:	85 d2                	test   %edx,%edx
 80489c7:	74 f2                	je     80489bb <frame_dummy+0xb>
 80489c9:	55                   	push   %ebp
 80489ca:	89 e5                	mov    %esp,%ebp
 80489cc:	83 ec 14             	sub    $0x14,%esp
 80489cf:	50                   	push   %eax
 80489d0:	ff d2                	call   *%edx
 80489d2:	83 c4 10             	add    $0x10,%esp
 80489d5:	c9                   	leave  
 80489d6:	e9 75 ff ff ff       	jmp    8048950 <register_tm_clones>

080489db <main>:
 80489db:	8d 4c 24 04          	lea    0x4(%esp),%ecx
 80489df:	83 e4 f0             	and    $0xfffffff0,%esp
 80489e2:	ff 71 fc             	pushl  -0x4(%ecx)
 80489e5:	55                   	push   %ebp
 80489e6:	89 e5                	mov    %esp,%ebp
 80489e8:	53                   	push   %ebx
 80489e9:	51                   	push   %ecx
 80489ea:	8b 01                	mov    (%ecx),%eax
 80489ec:	8b 59 04             	mov    0x4(%ecx),%ebx
 80489ef:	83 f8 01             	cmp    $0x1,%eax
 80489f2:	75 0c                	jne    8048a00 <main+0x25>
 80489f4:	a1 c0 c3 04 08       	mov    0x804c3c0,%eax
 80489f9:	a3 d0 c3 04 08       	mov    %eax,0x804c3d0
 80489fe:	eb 5b                	jmp    8048a5b <main+0x80>
 8048a00:	83 f8 02             	cmp    $0x2,%eax
 8048a03:	75 39                	jne    8048a3e <main+0x63>
 8048a05:	83 ec 08             	sub    $0x8,%esp
 8048a08:	68 68 9e 04 08       	push   $0x8049e68
 8048a0d:	ff 73 04             	pushl  0x4(%ebx)
 8048a10:	e8 0b fe ff ff       	call   8048820 <fopen@plt>
 8048a15:	a3 d0 c3 04 08       	mov    %eax,0x804c3d0
 8048a1a:	83 c4 10             	add    $0x10,%esp
 8048a1d:	85 c0                	test   %eax,%eax
 8048a1f:	75 3a                	jne    8048a5b <main+0x80>
 8048a21:	ff 73 04             	pushl  0x4(%ebx)
 8048a24:	ff 33                	pushl  (%ebx)
 8048a26:	68 6a 9e 04 08       	push   $0x8049e6a
 8048a2b:	6a 01                	push   $0x1
 8048a2d:	e8 0e fe ff ff       	call   8048840 <__printf_chk@plt>
 8048a32:	c7 04 24 08 00 00 00 	movl   $0x8,(%esp)
 8048a39:	e8 a2 fd ff ff       	call   80487e0 <exit@plt>
 8048a3e:	83 ec 04             	sub    $0x4,%esp
 8048a41:	ff 33                	pushl  (%ebx)
 8048a43:	68 87 9e 04 08       	push   $0x8049e87
 8048a48:	6a 01                	push   $0x1
 8048a4a:	e8 f1 fd ff ff       	call   8048840 <__printf_chk@plt>
 8048a4f:	c7 04 24 08 00 00 00 	movl   $0x8,(%esp)
 8048a56:	e8 85 fd ff ff       	call   80487e0 <exit@plt>
 8048a5b:	e8 a5 05 00 00       	call   8049005 <initialize_bomb>
 8048a60:	83 ec 0c             	sub    $0xc,%esp
 8048a63:	68 ec 9e 04 08       	push   $0x8049eec
 8048a68:	e8 53 fd ff ff       	call   80487c0 <puts@plt>
 8048a6d:	c7 04 24 28 9f 04 08 	movl   $0x8049f28,(%esp)
 8048a74:	e8 47 fd ff ff       	call   80487c0 <puts@plt>
 8048a79:	e8 79 06 00 00       	call   80490f7 <read_line>
 8048a7e:	89 04 24             	mov    %eax,(%esp)
 8048a81:	e8 ad 00 00 00       	call   8048b33 <phase_1>
 8048a86:	e8 65 07 00 00       	call   80491f0 <phase_defused>
 8048a8b:	c7 04 24 54 9f 04 08 	movl   $0x8049f54,(%esp)
 8048a92:	e8 29 fd ff ff       	call   80487c0 <puts@plt>
 8048a97:	e8 5b 06 00 00       	call   80490f7 <read_line>
 8048a9c:	89 04 24             	mov    %eax,(%esp)
 8048a9f:	e8 b0 00 00 00       	call   8048b54 <phase_2>
 8048aa4:	e8 47 07 00 00       	call   80491f0 <phase_defused>
 8048aa9:	c7 04 24 a1 9e 04 08 	movl   $0x8049ea1,(%esp)
 8048ab0:	e8 0b fd ff ff       	call   80487c0 <puts@plt>
 8048ab5:	e8 3d 06 00 00       	call   80490f7 <read_line>
 8048aba:	89 04 24             	mov    %eax,(%esp)
 8048abd:	e8 f5 00 00 00       	call   8048bb7 <phase_3>
 8048ac2:	e8 29 07 00 00       	call   80491f0 <phase_defused>
 8048ac7:	c7 04 24 bf 9e 04 08 	movl   $0x8049ebf,(%esp)
 8048ace:	e8 ed fc ff ff       	call   80487c0 <puts@plt>
 8048ad3:	e8 1f 06 00 00       	call   80490f7 <read_line>
 8048ad8:	89 04 24             	mov    %eax,(%esp)
 8048adb:	e8 d9 01 00 00       	call   8048cb9 <phase_4>
 8048ae0:	e8 0b 07 00 00       	call   80491f0 <phase_defused>
 8048ae5:	c7 04 24 80 9f 04 08 	movl   $0x8049f80,(%esp)
 8048aec:	e8 cf fc ff ff       	call   80487c0 <puts@plt>
 8048af1:	e8 01 06 00 00       	call   80490f7 <read_line>
 8048af6:	89 04 24             	mov    %eax,(%esp)
 8048af9:	e8 30 02 00 00       	call   8048d2e <phase_5>
 8048afe:	e8 ed 06 00 00       	call   80491f0 <phase_defused>
 8048b03:	c7 04 24 ce 9e 04 08 	movl   $0x8049ece,(%esp)
 8048b0a:	e8 b1 fc ff ff       	call   80487c0 <puts@plt>
 8048b0f:	e8 e3 05 00 00       	call   80490f7 <read_line>
 8048b14:	89 04 24             	mov    %eax,(%esp)
 8048b17:	e8 5a 02 00 00       	call   8048d76 <phase_6>
 8048b1c:	e8 cf 06 00 00       	call   80491f0 <phase_defused>
 8048b21:	83 c4 10             	add    $0x10,%esp
 8048b24:	b8 00 00 00 00       	mov    $0x0,%eax
 8048b29:	8d 65 f8             	lea    -0x8(%ebp),%esp
 8048b2c:	59                   	pop    %ecx
 8048b2d:	5b                   	pop    %ebx
 8048b2e:	5d                   	pop    %ebp
 8048b2f:	8d 61 fc             	lea    -0x4(%ecx),%esp
 8048b32:	c3                   	ret    

08048b33 <phase_1>:
 8048b33:	83 ec 14             	sub    $0x14,%esp
 8048b36:	68 a4 9f 04 08       	push   $0x8049fa4
 8048b3b:	ff 74 24 1c          	pushl  0x1c(%esp)
 8048b3f:	e8 5c 04 00 00       	call   8048fa0 <strings_not_equal>
 8048b44:	83 c4 10             	add    $0x10,%esp
 8048b47:	85 c0                	test   %eax,%eax
 8048b49:	74 05                	je     8048b50 <phase_1+0x1d>
 8048b4b:	e8 47 05 00 00       	call   8049097 <explode_bomb>
 8048b50:	83 c4 0c             	add    $0xc,%esp
 8048b53:	c3                   	ret    

08048b54 <phase_2>:
 8048b54:	56                   	push   %esi
 8048b55:	53                   	push   %ebx
 8048b56:	83 ec 2c             	sub    $0x2c,%esp
 8048b59:	65 a1 14 00 00 00    	mov    %gs:0x14,%eax
 8048b5f:	89 44 24 24          	mov    %eax,0x24(%esp)
 8048b63:	31 c0                	xor    %eax,%eax
 8048b65:	8d 44 24 0c          	lea    0xc(%esp),%eax
 8048b69:	50                   	push   %eax
 8048b6a:	ff 74 24 3c          	pushl  0x3c(%esp)
 8048b6e:	e8 49 05 00 00       	call   80490bc <read_six_numbers>
 8048b73:	83 c4 10             	add    $0x10,%esp
 8048b76:	83 7c 24 04 01       	cmpl   $0x1,0x4(%esp)
 8048b7b:	74 05                	je     8048b82 <phase_2+0x2e>
 8048b7d:	e8 15 05 00 00       	call   8049097 <explode_bomb>
 8048b82:	8d 5c 24 04          	lea    0x4(%esp),%ebx
 8048b86:	8d 74 24 18          	lea    0x18(%esp),%esi
 8048b8a:	8b 03                	mov    (%ebx),%eax
 8048b8c:	01 c0                	add    %eax,%eax
 8048b8e:	39 43 04             	cmp    %eax,0x4(%ebx)
 8048b91:	74 05                	je     8048b98 <phase_2+0x44>
 8048b93:	e8 ff 04 00 00       	call   8049097 <explode_bomb>
 8048b98:	83 c3 04             	add    $0x4,%ebx
 8048b9b:	39 f3                	cmp    %esi,%ebx
 8048b9d:	75 eb                	jne    8048b8a <phase_2+0x36>
 8048b9f:	8b 44 24 1c          	mov    0x1c(%esp),%eax
 8048ba3:	65 33 05 14 00 00 00 	xor    %gs:0x14,%eax
 8048baa:	74 05                	je     8048bb1 <phase_2+0x5d>
 8048bac:	e8 df fb ff ff       	call   8048790 <__stack_chk_fail@plt>
 8048bb1:	83 c4 24             	add    $0x24,%esp
 8048bb4:	5b                   	pop    %ebx
 8048bb5:	5e                   	pop    %esi
 8048bb6:	c3                   	ret    

08048bb7 <phase_3>:
 8048bb7:	83 ec 1c             	sub    $0x1c,%esp
 8048bba:	65 a1 14 00 00 00    	mov    %gs:0x14,%eax
 8048bc0:	89 44 24 0c          	mov    %eax,0xc(%esp)
 8048bc4:	31 c0                	xor    %eax,%eax
 8048bc6:	8d 44 24 08          	lea    0x8(%esp),%eax
 8048bca:	50                   	push   %eax
 8048bcb:	8d 44 24 08          	lea    0x8(%esp),%eax
 8048bcf:	50                   	push   %eax
 8048bd0:	68 6f a1 04 08       	push   $0x804a16f
 8048bd5:	ff 74 24 2c          	pushl  0x2c(%esp)
 8048bd9:	e8 32 fc ff ff       	call   8048810 <__isoc99_sscanf@plt>
 8048bde:	83 c4 10             	add    $0x10,%esp
 8048be1:	83 f8 01             	cmp    $0x1,%eax
 8048be4:	7f 05                	jg     8048beb <phase_3+0x34>
 8048be6:	e8 ac 04 00 00       	call   8049097 <explode_bomb>
 8048beb:	83 7c 24 04 07       	cmpl   $0x7,0x4(%esp)
 8048bf0:	77 3c                	ja     8048c2e <phase_3+0x77>
 8048bf2:	8b 44 24 04          	mov    0x4(%esp),%eax
 8048bf6:	ff 24 85 00 a0 04 08 	jmp    *0x804a000(,%eax,4)
 8048bfd:	b8 bf 02 00 00       	mov    $0x2bf,%eax
 8048c02:	eb 3b                	jmp    8048c3f <phase_3+0x88>
 8048c04:	b8 ba 02 00 00       	mov    $0x2ba,%eax
 8048c09:	eb 34                	jmp    8048c3f <phase_3+0x88>
 8048c0b:	b8 02 02 00 00       	mov    $0x202,%eax
 8048c10:	eb 2d                	jmp    8048c3f <phase_3+0x88>
 8048c12:	b8 52 03 00 00       	mov    $0x352,%eax
 8048c17:	eb 26                	jmp    8048c3f <phase_3+0x88>
 8048c19:	b8 a3 00 00 00       	mov    $0xa3,%eax
 8048c1e:	eb 1f                	jmp    8048c3f <phase_3+0x88>
 8048c20:	b8 97 02 00 00       	mov    $0x297,%eax
 8048c25:	eb 18                	jmp    8048c3f <phase_3+0x88>
 8048c27:	b8 63 03 00 00       	mov    $0x363,%eax
 8048c2c:	eb 11                	jmp    8048c3f <phase_3+0x88>
 8048c2e:	e8 64 04 00 00       	call   8049097 <explode_bomb>
 8048c33:	b8 00 00 00 00       	mov    $0x0,%eax
 8048c38:	eb 05                	jmp    8048c3f <phase_3+0x88>
 8048c3a:	b8 08 01 00 00       	mov    $0x108,%eax
 8048c3f:	3b 44 24 08          	cmp    0x8(%esp),%eax
 8048c43:	74 05                	je     8048c4a <phase_3+0x93>
 8048c45:	e8 4d 04 00 00       	call   8049097 <explode_bomb>
 8048c4a:	8b 44 24 0c          	mov    0xc(%esp),%eax
 8048c4e:	65 33 05 14 00 00 00 	xor    %gs:0x14,%eax
 8048c55:	74 05                	je     8048c5c <phase_3+0xa5>
 8048c57:	e8 34 fb ff ff       	call   8048790 <__stack_chk_fail@plt>
 8048c5c:	83 c4 1c             	add    $0x1c,%esp
 8048c5f:	c3                   	ret    

08048c60 <func4>:
 8048c60:	56                   	push   %esi
 8048c61:	53                   	push   %ebx
 8048c62:	83 ec 04             	sub    $0x4,%esp
 8048c65:	8b 54 24 10          	mov    0x10(%esp),%edx
 8048c69:	8b 74 24 14          	mov    0x14(%esp),%esi
 8048c6d:	8b 4c 24 18          	mov    0x18(%esp),%ecx
 8048c71:	89 c8                	mov    %ecx,%eax
 8048c73:	29 f0                	sub    %esi,%eax
 8048c75:	89 c3                	mov    %eax,%ebx
 8048c77:	c1 eb 1f             	shr    $0x1f,%ebx
 8048c7a:	01 d8                	add    %ebx,%eax
 8048c7c:	d1 f8                	sar    %eax
 8048c7e:	8d 1c 30             	lea    (%eax,%esi,1),%ebx
 8048c81:	39 d3                	cmp    %edx,%ebx
 8048c83:	7e 15                	jle    8048c9a <func4+0x3a>
 8048c85:	83 ec 04             	sub    $0x4,%esp
 8048c88:	8d 43 ff             	lea    -0x1(%ebx),%eax
 8048c8b:	50                   	push   %eax
 8048c8c:	56                   	push   %esi
 8048c8d:	52                   	push   %edx
 8048c8e:	e8 cd ff ff ff       	call   8048c60 <func4>
 8048c93:	83 c4 10             	add    $0x10,%esp
 8048c96:	01 d8                	add    %ebx,%eax
 8048c98:	eb 19                	jmp    8048cb3 <func4+0x53>
 8048c9a:	89 d8                	mov    %ebx,%eax
 8048c9c:	39 d3                	cmp    %edx,%ebx
 8048c9e:	7d 13                	jge    8048cb3 <func4+0x53>
 8048ca0:	83 ec 04             	sub    $0x4,%esp
 8048ca3:	51                   	push   %ecx
 8048ca4:	8d 43 01             	lea    0x1(%ebx),%eax
 8048ca7:	50                   	push   %eax
 8048ca8:	52                   	push   %edx
 8048ca9:	e8 b2 ff ff ff       	call   8048c60 <func4>
 8048cae:	83 c4 10             	add    $0x10,%esp
 8048cb1:	01 d8                	add    %ebx,%eax
 8048cb3:	83 c4 04             	add    $0x4,%esp
 8048cb6:	5b                   	pop    %ebx
 8048cb7:	5e                   	pop    %esi
 8048cb8:	c3                   	ret    

08048cb9 <phase_4>:
 8048cb9:	83 ec 1c             	sub    $0x1c,%esp
 8048cbc:	65 a1 14 00 00 00    	mov    %gs:0x14,%eax
 8048cc2:	89 44 24 0c          	mov    %eax,0xc(%esp)
 8048cc6:	31 c0                	xor    %eax,%eax
 8048cc8:	8d 44 24 08          	lea    0x8(%esp),%eax
 8048ccc:	50                   	push   %eax
 8048ccd:	8d 44 24 08          	lea    0x8(%esp),%eax
 8048cd1:	50                   	push   %eax
 8048cd2:	68 6f a1 04 08       	push   $0x804a16f
 8048cd7:	ff 74 24 2c          	pushl  0x2c(%esp)
 8048cdb:	e8 30 fb ff ff       	call   8048810 <__isoc99_sscanf@plt>
 8048ce0:	83 c4 10             	add    $0x10,%esp
 8048ce3:	83 f8 02             	cmp    $0x2,%eax
 8048ce6:	75 07                	jne    8048cef <phase_4+0x36>
 8048ce8:	83 7c 24 04 0e       	cmpl   $0xe,0x4(%esp)
 8048ced:	76 05                	jbe    8048cf4 <phase_4+0x3b>
 8048cef:	e8 a3 03 00 00       	call   8049097 <explode_bomb>
 8048cf4:	83 ec 04             	sub    $0x4,%esp
 8048cf7:	6a 0e                	push   $0xe
 8048cf9:	6a 00                	push   $0x0
 8048cfb:	ff 74 24 10          	pushl  0x10(%esp)
 8048cff:	e8 5c ff ff ff       	call   8048c60 <func4>
 8048d04:	83 c4 10             	add    $0x10,%esp
 8048d07:	83 f8 15             	cmp    $0x15,%eax
 8048d0a:	75 07                	jne    8048d13 <phase_4+0x5a>
 8048d0c:	83 7c 24 08 15       	cmpl   $0x15,0x8(%esp)
 8048d11:	74 05                	je     8048d18 <phase_4+0x5f>
 8048d13:	e8 7f 03 00 00       	call   8049097 <explode_bomb>
 8048d18:	8b 44 24 0c          	mov    0xc(%esp),%eax
 8048d1c:	65 33 05 14 00 00 00 	xor    %gs:0x14,%eax
 8048d23:	74 05                	je     8048d2a <phase_4+0x71>
 8048d25:	e8 66 fa ff ff       	call   8048790 <__stack_chk_fail@plt>
 8048d2a:	83 c4 1c             	add    $0x1c,%esp
 8048d2d:	c3                   	ret    

08048d2e <phase_5>:
 8048d2e:	53                   	push   %ebx
 8048d2f:	83 ec 14             	sub    $0x14,%esp
 8048d32:	8b 5c 24 1c          	mov    0x1c(%esp),%ebx
 8048d36:	53                   	push   %ebx
 8048d37:	e8 45 02 00 00       	call   8048f81 <string_length>
 8048d3c:	83 c4 10             	add    $0x10,%esp
 8048d3f:	83 f8 06             	cmp    $0x6,%eax
 8048d42:	74 05                	je     8048d49 <phase_5+0x1b>
 8048d44:	e8 4e 03 00 00       	call   8049097 <explode_bomb>
 8048d49:	89 d8                	mov    %ebx,%eax
 8048d4b:	83 c3 06             	add    $0x6,%ebx
 8048d4e:	b9 00 00 00 00       	mov    $0x0,%ecx
 8048d53:	0f b6 10             	movzbl (%eax),%edx
 8048d56:	83 e2 0f             	and    $0xf,%edx
 8048d59:	03 0c 95 20 a0 04 08 	add    0x804a020(,%edx,4),%ecx
 8048d60:	83 c0 01             	add    $0x1,%eax
 8048d63:	39 d8                	cmp    %ebx,%eax
 8048d65:	75 ec                	jne    8048d53 <phase_5+0x25>
 8048d67:	83 f9 2b             	cmp    $0x2b,%ecx
 8048d6a:	74 05                	je     8048d71 <phase_5+0x43>
 8048d6c:	e8 26 03 00 00       	call   8049097 <explode_bomb>
 8048d71:	83 c4 08             	add    $0x8,%esp
 8048d74:	5b                   	pop    %ebx
 8048d75:	c3                   	ret    

08048d76 <phase_6>:
 8048d76:	56                   	push   %esi
 8048d77:	53                   	push   %ebx
 8048d78:	83 ec 4c             	sub    $0x4c,%esp
 8048d7b:	65 a1 14 00 00 00    	mov    %gs:0x14,%eax
 8048d81:	89 44 24 44          	mov    %eax,0x44(%esp)
 8048d85:	31 c0                	xor    %eax,%eax
 8048d87:	8d 44 24 14          	lea    0x14(%esp),%eax
 8048d8b:	50                   	push   %eax
 8048d8c:	ff 74 24 5c          	pushl  0x5c(%esp)
 8048d90:	e8 27 03 00 00       	call   80490bc <read_six_numbers>
 8048d95:	83 c4 10             	add    $0x10,%esp
 8048d98:	be 00 00 00 00       	mov    $0x0,%esi
 8048d9d:	8b 44 b4 0c          	mov    0xc(%esp,%esi,4),%eax
 8048da1:	83 e8 01             	sub    $0x1,%eax
 8048da4:	83 f8 05             	cmp    $0x5,%eax
 8048da7:	76 05                	jbe    8048dae <phase_6+0x38>
 8048da9:	e8 e9 02 00 00       	call   8049097 <explode_bomb>
 8048dae:	83 c6 01             	add    $0x1,%esi
 8048db1:	83 fe 06             	cmp    $0x6,%esi
 8048db4:	74 33                	je     8048de9 <phase_6+0x73>
 8048db6:	89 f3                	mov    %esi,%ebx
 8048db8:	8b 44 9c 0c          	mov    0xc(%esp,%ebx,4),%eax
 8048dbc:	39 44 b4 08          	cmp    %eax,0x8(%esp,%esi,4)
 8048dc0:	75 05                	jne    8048dc7 <phase_6+0x51>
 8048dc2:	e8 d0 02 00 00       	call   8049097 <explode_bomb>
 8048dc7:	83 c3 01             	add    $0x1,%ebx
 8048dca:	83 fb 05             	cmp    $0x5,%ebx
 8048dcd:	7e e9                	jle    8048db8 <phase_6+0x42>
 8048dcf:	eb cc                	jmp    8048d9d <phase_6+0x27>
 8048dd1:	8b 52 08             	mov    0x8(%edx),%edx
 8048dd4:	83 c0 01             	add    $0x1,%eax
 8048dd7:	39 c8                	cmp    %ecx,%eax
 8048dd9:	75 f6                	jne    8048dd1 <phase_6+0x5b>
 8048ddb:	89 54 b4 24          	mov    %edx,0x24(%esp,%esi,4)
 8048ddf:	83 c3 01             	add    $0x1,%ebx
 8048de2:	83 fb 06             	cmp    $0x6,%ebx
 8048de5:	75 07                	jne    8048dee <phase_6+0x78>
 8048de7:	eb 1c                	jmp    8048e05 <phase_6+0x8f>
 8048de9:	bb 00 00 00 00       	mov    $0x0,%ebx
 8048dee:	89 de                	mov    %ebx,%esi
 8048df0:	8b 4c 9c 0c          	mov    0xc(%esp,%ebx,4),%ecx
 8048df4:	b8 01 00 00 00       	mov    $0x1,%eax
 8048df9:	ba 3c c1 04 08       	mov    $0x804c13c,%edx
 8048dfe:	83 f9 01             	cmp    $0x1,%ecx
 8048e01:	7f ce                	jg     8048dd1 <phase_6+0x5b>
 8048e03:	eb d6                	jmp    8048ddb <phase_6+0x65>
 8048e05:	8b 5c 24 24          	mov    0x24(%esp),%ebx
 8048e09:	8d 44 24 24          	lea    0x24(%esp),%eax
 8048e0d:	8d 74 24 38          	lea    0x38(%esp),%esi
 8048e11:	89 d9                	mov    %ebx,%ecx
 8048e13:	8b 50 04             	mov    0x4(%eax),%edx
 8048e16:	89 51 08             	mov    %edx,0x8(%ecx)
 8048e19:	83 c0 04             	add    $0x4,%eax
 8048e1c:	89 d1                	mov    %edx,%ecx
 8048e1e:	39 f0                	cmp    %esi,%eax
 8048e20:	75 f1                	jne    8048e13 <phase_6+0x9d>
 8048e22:	c7 42 08 00 00 00 00 	movl   $0x0,0x8(%edx)
 8048e29:	be 05 00 00 00       	mov    $0x5,%esi
 8048e2e:	8b 43 08             	mov    0x8(%ebx),%eax
 8048e31:	8b 00                	mov    (%eax),%eax
 8048e33:	39 03                	cmp    %eax,(%ebx)
 8048e35:	7e 05                	jle    8048e3c <phase_6+0xc6>
 8048e37:	e8 5b 02 00 00       	call   8049097 <explode_bomb>
 8048e3c:	8b 5b 08             	mov    0x8(%ebx),%ebx
 8048e3f:	83 ee 01             	sub    $0x1,%esi
 8048e42:	75 ea                	jne    8048e2e <phase_6+0xb8>
 8048e44:	8b 44 24 3c          	mov    0x3c(%esp),%eax
 8048e48:	65 33 05 14 00 00 00 	xor    %gs:0x14,%eax
 8048e4f:	74 05                	je     8048e56 <phase_6+0xe0>
 8048e51:	e8 3a f9 ff ff       	call   8048790 <__stack_chk_fail@plt>
 8048e56:	83 c4 44             	add    $0x44,%esp
 8048e59:	5b                   	pop    %ebx
 8048e5a:	5e                   	pop    %esi
 8048e5b:	c3                   	ret    

08048e5c <fun7>:
 8048e5c:	53                   	push   %ebx
 8048e5d:	83 ec 08             	sub    $0x8,%esp
 8048e60:	8b 54 24 10          	mov    0x10(%esp),%edx
 8048e64:	8b 4c 24 14          	mov    0x14(%esp),%ecx
 8048e68:	85 d2                	test   %edx,%edx
 8048e6a:	74 37                	je     8048ea3 <fun7+0x47>
 8048e6c:	8b 1a                	mov    (%edx),%ebx
 8048e6e:	39 cb                	cmp    %ecx,%ebx
 8048e70:	7e 13                	jle    8048e85 <fun7+0x29>
 8048e72:	83 ec 08             	sub    $0x8,%esp
 8048e75:	51                   	push   %ecx
 8048e76:	ff 72 04             	pushl  0x4(%edx)
 8048e79:	e8 de ff ff ff       	call   8048e5c <fun7>
 8048e7e:	83 c4 10             	add    $0x10,%esp
 8048e81:	01 c0                	add    %eax,%eax
 8048e83:	eb 23                	jmp    8048ea8 <fun7+0x4c>
 8048e85:	b8 00 00 00 00       	mov    $0x0,%eax
 8048e8a:	39 cb                	cmp    %ecx,%ebx
 8048e8c:	74 1a                	je     8048ea8 <fun7+0x4c>
 8048e8e:	83 ec 08             	sub    $0x8,%esp
 8048e91:	51                   	push   %ecx
 8048e92:	ff 72 08             	pushl  0x8(%edx)
 8048e95:	e8 c2 ff ff ff       	call   8048e5c <fun7>
 8048e9a:	83 c4 10             	add    $0x10,%esp
 8048e9d:	8d 44 00 01          	lea    0x1(%eax,%eax,1),%eax
 8048ea1:	eb 05                	jmp    8048ea8 <fun7+0x4c>
 8048ea3:	b8 ff ff ff ff       	mov    $0xffffffff,%eax
 8048ea8:	83 c4 08             	add    $0x8,%esp
 8048eab:	5b                   	pop    %ebx
 8048eac:	c3                   	ret    

08048ead <secret_phase>:
 8048ead:	53                   	push   %ebx
 8048eae:	83 ec 08             	sub    $0x8,%esp
 8048eb1:	e8 41 02 00 00       	call   80490f7 <read_line>
 8048eb6:	83 ec 04             	sub    $0x4,%esp
 8048eb9:	6a 0a                	push   $0xa
 8048ebb:	6a 00                	push   $0x0
 8048ebd:	50                   	push   %eax
 8048ebe:	e8 bd f9 ff ff       	call   8048880 <strtol@plt>
 8048ec3:	89 c3                	mov    %eax,%ebx
 8048ec5:	8d 40 ff             	lea    -0x1(%eax),%eax
 8048ec8:	83 c4 10             	add    $0x10,%esp
 8048ecb:	3d e8 03 00 00       	cmp    $0x3e8,%eax
 8048ed0:	76 05                	jbe    8048ed7 <secret_phase+0x2a>
 8048ed2:	e8 c0 01 00 00       	call   8049097 <explode_bomb>
 8048ed7:	83 ec 08             	sub    $0x8,%esp
 8048eda:	53                   	push   %ebx
 8048edb:	68 88 c0 04 08       	push   $0x804c088
 8048ee0:	e8 77 ff ff ff       	call   8048e5c <fun7>
 8048ee5:	83 c4 10             	add    $0x10,%esp
 8048ee8:	85 c0                	test   %eax,%eax
 8048eea:	74 05                	je     8048ef1 <secret_phase+0x44>
 8048eec:	e8 a6 01 00 00       	call   8049097 <explode_bomb>
 8048ef1:	83 ec 0c             	sub    $0xc,%esp
 8048ef4:	68 d8 9f 04 08       	push   $0x8049fd8
 8048ef9:	e8 c2 f8 ff ff       	call   80487c0 <puts@plt>
 8048efe:	e8 ed 02 00 00       	call   80491f0 <phase_defused>
 8048f03:	83 c4 18             	add    $0x18,%esp
 8048f06:	5b                   	pop    %ebx
 8048f07:	c3                   	ret    

08048f08 <sig_handler>:
 8048f08:	83 ec 18             	sub    $0x18,%esp
 8048f0b:	68 60 a0 04 08       	push   $0x804a060
 8048f10:	e8 ab f8 ff ff       	call   80487c0 <puts@plt>
 8048f15:	c7 04 24 03 00 00 00 	movl   $0x3,(%esp)
 8048f1c:	e8 4f f8 ff ff       	call   8048770 <sleep@plt>
 8048f21:	83 c4 08             	add    $0x8,%esp
 8048f24:	68 22 a1 04 08       	push   $0x804a122
 8048f29:	6a 01                	push   $0x1
 8048f2b:	e8 10 f9 ff ff       	call   8048840 <__printf_chk@plt>
 8048f30:	83 c4 04             	add    $0x4,%esp
 8048f33:	ff 35 c4 c3 04 08    	pushl  0x804c3c4
 8048f39:	e8 02 f8 ff ff       	call   8048740 <fflush@plt>
 8048f3e:	c7 04 24 01 00 00 00 	movl   $0x1,(%esp)
 8048f45:	e8 26 f8 ff ff       	call   8048770 <sleep@plt>
 8048f4a:	c7 04 24 2a a1 04 08 	movl   $0x804a12a,(%esp)
 8048f51:	e8 6a f8 ff ff       	call   80487c0 <puts@plt>
 8048f56:	c7 04 24 10 00 00 00 	movl   $0x10,(%esp)
 8048f5d:	e8 7e f8 ff ff       	call   80487e0 <exit@plt>

08048f62 <invalid_phase>:
 8048f62:	83 ec 10             	sub    $0x10,%esp
 8048f65:	ff 74 24 14          	pushl  0x14(%esp)
 8048f69:	68 32 a1 04 08       	push   $0x804a132
 8048f6e:	6a 01                	push   $0x1
 8048f70:	e8 cb f8 ff ff       	call   8048840 <__printf_chk@plt>
 8048f75:	c7 04 24 08 00 00 00 	movl   $0x8,(%esp)
 8048f7c:	e8 5f f8 ff ff       	call   80487e0 <exit@plt>

08048f81 <string_length>:
 8048f81:	8b 54 24 04          	mov    0x4(%esp),%edx
 8048f85:	80 3a 00             	cmpb   $0x0,(%edx)
 8048f88:	74 10                	je     8048f9a <string_length+0x19>
 8048f8a:	b8 00 00 00 00       	mov    $0x0,%eax
 8048f8f:	83 c0 01             	add    $0x1,%eax
 8048f92:	80 3c 02 00          	cmpb   $0x0,(%edx,%eax,1)
 8048f96:	75 f7                	jne    8048f8f <string_length+0xe>
 8048f98:	f3 c3                	repz ret 
 8048f9a:	b8 00 00 00 00       	mov    $0x0,%eax
 8048f9f:	c3                   	ret    

08048fa0 <strings_not_equal>:
 8048fa0:	57                   	push   %edi
 8048fa1:	56                   	push   %esi
 8048fa2:	53                   	push   %ebx
 8048fa3:	8b 5c 24 10          	mov    0x10(%esp),%ebx
 8048fa7:	8b 74 24 14          	mov    0x14(%esp),%esi
 8048fab:	53                   	push   %ebx
 8048fac:	e8 d0 ff ff ff       	call   8048f81 <string_length>
 8048fb1:	89 c7                	mov    %eax,%edi
 8048fb3:	89 34 24             	mov    %esi,(%esp)
 8048fb6:	e8 c6 ff ff ff       	call   8048f81 <string_length>
 8048fbb:	83 c4 04             	add    $0x4,%esp
 8048fbe:	ba 01 00 00 00       	mov    $0x1,%edx
 8048fc3:	39 c7                	cmp    %eax,%edi
 8048fc5:	75 38                	jne    8048fff <strings_not_equal+0x5f>
 8048fc7:	0f b6 03             	movzbl (%ebx),%eax
 8048fca:	84 c0                	test   %al,%al
 8048fcc:	74 1e                	je     8048fec <strings_not_equal+0x4c>
 8048fce:	3a 06                	cmp    (%esi),%al
 8048fd0:	74 06                	je     8048fd8 <strings_not_equal+0x38>
 8048fd2:	eb 1f                	jmp    8048ff3 <strings_not_equal+0x53>
 8048fd4:	3a 06                	cmp    (%esi),%al
 8048fd6:	75 22                	jne    8048ffa <strings_not_equal+0x5a>
 8048fd8:	83 c3 01             	add    $0x1,%ebx
 8048fdb:	83 c6 01             	add    $0x1,%esi
 8048fde:	0f b6 03             	movzbl (%ebx),%eax
 8048fe1:	84 c0                	test   %al,%al
 8048fe3:	75 ef                	jne    8048fd4 <strings_not_equal+0x34>
 8048fe5:	ba 00 00 00 00       	mov    $0x0,%edx
 8048fea:	eb 13                	jmp    8048fff <strings_not_equal+0x5f>
 8048fec:	ba 00 00 00 00       	mov    $0x0,%edx
 8048ff1:	eb 0c                	jmp    8048fff <strings_not_equal+0x5f>
 8048ff3:	ba 01 00 00 00       	mov    $0x1,%edx
 8048ff8:	eb 05                	jmp    8048fff <strings_not_equal+0x5f>
 8048ffa:	ba 01 00 00 00       	mov    $0x1,%edx
 8048fff:	89 d0                	mov    %edx,%eax
 8049001:	5b                   	pop    %ebx
 8049002:	5e                   	pop    %esi
 8049003:	5f                   	pop    %edi
 8049004:	c3                   	ret    

08049005 <initialize_bomb>:
 8049005:	83 ec 14             	sub    $0x14,%esp
 8049008:	68 08 8f 04 08       	push   $0x8048f08
 804900d:	6a 02                	push   $0x2
 804900f:	e8 4c f7 ff ff       	call   8048760 <signal@plt>
 8049014:	83 c4 1c             	add    $0x1c,%esp
 8049017:	c3                   	ret    

08049018 <initialize_bomb_solve>:
 8049018:	f3 c3                	repz ret 

0804901a <blank_line>:
 804901a:	56                   	push   %esi
 804901b:	53                   	push   %ebx
 804901c:	83 ec 04             	sub    $0x4,%esp
 804901f:	8b 74 24 10          	mov    0x10(%esp),%esi
 8049023:	eb 14                	jmp    8049039 <blank_line+0x1f>
 8049025:	e8 86 f8 ff ff       	call   80488b0 <__ctype_b_loc@plt>
 804902a:	83 c6 01             	add    $0x1,%esi
 804902d:	0f be db             	movsbl %bl,%ebx
 8049030:	8b 00                	mov    (%eax),%eax
 8049032:	f6 44 58 01 20       	testb  $0x20,0x1(%eax,%ebx,2)
 8049037:	74 0e                	je     8049047 <blank_line+0x2d>
 8049039:	0f b6 1e             	movzbl (%esi),%ebx
 804903c:	84 db                	test   %bl,%bl
 804903e:	75 e5                	jne    8049025 <blank_line+0xb>
 8049040:	b8 01 00 00 00       	mov    $0x1,%eax
 8049045:	eb 05                	jmp    804904c <blank_line+0x32>
 8049047:	b8 00 00 00 00       	mov    $0x0,%eax
 804904c:	83 c4 04             	add    $0x4,%esp
 804904f:	5b                   	pop    %ebx
 8049050:	5e                   	pop    %esi
 8049051:	c3                   	ret    

08049052 <skip>:
 8049052:	53                   	push   %ebx
 8049053:	83 ec 08             	sub    $0x8,%esp
 8049056:	83 ec 04             	sub    $0x4,%esp
 8049059:	ff 35 d0 c3 04 08    	pushl  0x804c3d0
 804905f:	6a 50                	push   $0x50
 8049061:	a1 cc c3 04 08       	mov    0x804c3cc,%eax
 8049066:	8d 04 80             	lea    (%eax,%eax,4),%eax
 8049069:	c1 e0 04             	shl    $0x4,%eax
 804906c:	05 e0 c3 04 08       	add    $0x804c3e0,%eax
 8049071:	50                   	push   %eax
 8049072:	e8 d9 f6 ff ff       	call   8048750 <fgets@plt>
 8049077:	89 c3                	mov    %eax,%ebx
 8049079:	83 c4 10             	add    $0x10,%esp
 804907c:	85 c0                	test   %eax,%eax
 804907e:	74 10                	je     8049090 <skip+0x3e>
 8049080:	83 ec 0c             	sub    $0xc,%esp
 8049083:	50                   	push   %eax
 8049084:	e8 91 ff ff ff       	call   804901a <blank_line>
 8049089:	83 c4 10             	add    $0x10,%esp
 804908c:	85 c0                	test   %eax,%eax
 804908e:	75 c6                	jne    8049056 <skip+0x4>
 8049090:	89 d8                	mov    %ebx,%eax
 8049092:	83 c4 08             	add    $0x8,%esp
 8049095:	5b                   	pop    %ebx
 8049096:	c3                   	ret    

08049097 <explode_bomb>:
 8049097:	83 ec 18             	sub    $0x18,%esp
 804909a:	68 43 a1 04 08       	push   $0x804a143
 804909f:	e8 1c f7 ff ff       	call   80487c0 <puts@plt>
 80490a4:	c7 04 24 4c a1 04 08 	movl   $0x804a14c,(%esp)
 80490ab:	e8 10 f7 ff ff       	call   80487c0 <puts@plt>
 80490b0:	c7 04 24 08 00 00 00 	movl   $0x8,(%esp)
 80490b7:	e8 24 f7 ff ff       	call   80487e0 <exit@plt>

080490bc <read_six_numbers>:
 80490bc:	83 ec 0c             	sub    $0xc,%esp
 80490bf:	8b 44 24 14          	mov    0x14(%esp),%eax
 80490c3:	8d 50 14             	lea    0x14(%eax),%edx
 80490c6:	52                   	push   %edx
 80490c7:	8d 50 10             	lea    0x10(%eax),%edx
 80490ca:	52                   	push   %edx
 80490cb:	8d 50 0c             	lea    0xc(%eax),%edx
 80490ce:	52                   	push   %edx
 80490cf:	8d 50 08             	lea    0x8(%eax),%edx
 80490d2:	52                   	push   %edx
 80490d3:	8d 50 04             	lea    0x4(%eax),%edx
 80490d6:	52                   	push   %edx
 80490d7:	50                   	push   %eax
 80490d8:	68 63 a1 04 08       	push   $0x804a163
 80490dd:	ff 74 24 2c          	pushl  0x2c(%esp)
 80490e1:	e8 2a f7 ff ff       	call   8048810 <__isoc99_sscanf@plt>
 80490e6:	83 c4 20             	add    $0x20,%esp
 80490e9:	83 f8 05             	cmp    $0x5,%eax
 80490ec:	7f 05                	jg     80490f3 <read_six_numbers+0x37>
 80490ee:	e8 a4 ff ff ff       	call   8049097 <explode_bomb>
 80490f3:	83 c4 0c             	add    $0xc,%esp
 80490f6:	c3                   	ret    

080490f7 <read_line>:
 80490f7:	57                   	push   %edi
 80490f8:	56                   	push   %esi
 80490f9:	53                   	push   %ebx
 80490fa:	e8 53 ff ff ff       	call   8049052 <skip>
 80490ff:	85 c0                	test   %eax,%eax
 8049101:	75 70                	jne    8049173 <read_line+0x7c>
 8049103:	a1 c0 c3 04 08       	mov    0x804c3c0,%eax
 8049108:	39 05 d0 c3 04 08    	cmp    %eax,0x804c3d0
 804910e:	75 19                	jne    8049129 <read_line+0x32>
 8049110:	83 ec 0c             	sub    $0xc,%esp
 8049113:	68 75 a1 04 08       	push   $0x804a175
 8049118:	e8 a3 f6 ff ff       	call   80487c0 <puts@plt>
 804911d:	c7 04 24 08 00 00 00 	movl   $0x8,(%esp)
 8049124:	e8 b7 f6 ff ff       	call   80487e0 <exit@plt>
 8049129:	83 ec 0c             	sub    $0xc,%esp
 804912c:	68 93 a1 04 08       	push   $0x804a193
 8049131:	e8 7a f6 ff ff       	call   80487b0 <getenv@plt>
 8049136:	83 c4 10             	add    $0x10,%esp
 8049139:	85 c0                	test   %eax,%eax
 804913b:	74 0a                	je     8049147 <read_line+0x50>
 804913d:	83 ec 0c             	sub    $0xc,%esp
 8049140:	6a 00                	push   $0x0
 8049142:	e8 99 f6 ff ff       	call   80487e0 <exit@plt>
 8049147:	a1 c0 c3 04 08       	mov    0x804c3c0,%eax
 804914c:	a3 d0 c3 04 08       	mov    %eax,0x804c3d0
 8049151:	e8 fc fe ff ff       	call   8049052 <skip>
 8049156:	85 c0                	test   %eax,%eax
 8049158:	75 19                	jne    8049173 <read_line+0x7c>
 804915a:	83 ec 0c             	sub    $0xc,%esp
 804915d:	68 75 a1 04 08       	push   $0x804a175
 8049162:	e8 59 f6 ff ff       	call   80487c0 <puts@plt>
 8049167:	c7 04 24 00 00 00 00 	movl   $0x0,(%esp)
 804916e:	e8 6d f6 ff ff       	call   80487e0 <exit@plt>
 8049173:	8b 15 cc c3 04 08    	mov    0x804c3cc,%edx
 8049179:	8d 1c 92             	lea    (%edx,%edx,4),%ebx
 804917c:	c1 e3 04             	shl    $0x4,%ebx
 804917f:	81 c3 e0 c3 04 08    	add    $0x804c3e0,%ebx
 8049185:	b8 00 00 00 00       	mov    $0x0,%eax
 804918a:	b9 ff ff ff ff       	mov    $0xffffffff,%ecx
 804918f:	89 df                	mov    %ebx,%edi
 8049191:	f2 ae                	repnz scas %es:(%edi),%al
 8049193:	f7 d1                	not    %ecx
 8049195:	83 e9 01             	sub    $0x1,%ecx
 8049198:	83 f9 4e             	cmp    $0x4e,%ecx
 804919b:	7e 36                	jle    80491d3 <read_line+0xdc>
 804919d:	83 ec 0c             	sub    $0xc,%esp
 80491a0:	68 9e a1 04 08       	push   $0x804a19e
 80491a5:	e8 16 f6 ff ff       	call   80487c0 <puts@plt>
 80491aa:	a1 cc c3 04 08       	mov    0x804c3cc,%eax
 80491af:	8d 50 01             	lea    0x1(%eax),%edx
 80491b2:	89 15 cc c3 04 08    	mov    %edx,0x804c3cc
 80491b8:	6b c0 50             	imul   $0x50,%eax,%eax
 80491bb:	05 e0 c3 04 08       	add    $0x804c3e0,%eax
 80491c0:	be b9 a1 04 08       	mov    $0x804a1b9,%esi
 80491c5:	b9 04 00 00 00       	mov    $0x4,%ecx
 80491ca:	89 c7                	mov    %eax,%edi
 80491cc:	f3 a5                	rep movsl %ds:(%esi),%es:(%edi)
 80491ce:	e8 c4 fe ff ff       	call   8049097 <explode_bomb>
 80491d3:	8d 04 92             	lea    (%edx,%edx,4),%eax
 80491d6:	c1 e0 04             	shl    $0x4,%eax
 80491d9:	c6 84 01 df c3 04 08 	movb   $0x0,0x804c3df(%ecx,%eax,1)
 80491e0:	00 
 80491e1:	83 c2 01             	add    $0x1,%edx
 80491e4:	89 15 cc c3 04 08    	mov    %edx,0x804c3cc
 80491ea:	89 d8                	mov    %ebx,%eax
 80491ec:	5b                   	pop    %ebx
 80491ed:	5e                   	pop    %esi
 80491ee:	5f                   	pop    %edi
 80491ef:	c3                   	ret    

080491f0 <phase_defused>:
 80491f0:	83 ec 6c             	sub    $0x6c,%esp
 80491f3:	65 a1 14 00 00 00    	mov    %gs:0x14,%eax
 80491f9:	89 44 24 5c          	mov    %eax,0x5c(%esp)
 80491fd:	31 c0                	xor    %eax,%eax
 80491ff:	83 3d cc c3 04 08 06 	cmpl   $0x6,0x804c3cc
 8049206:	75 73                	jne    804927b <phase_defused+0x8b>
 8049208:	83 ec 0c             	sub    $0xc,%esp
 804920b:	8d 44 24 18          	lea    0x18(%esp),%eax
 804920f:	50                   	push   %eax
 8049210:	8d 44 24 18          	lea    0x18(%esp),%eax
 8049214:	50                   	push   %eax
 8049215:	8d 44 24 18          	lea    0x18(%esp),%eax
 8049219:	50                   	push   %eax
 804921a:	68 c9 a1 04 08       	push   $0x804a1c9
 804921f:	68 d0 c4 04 08       	push   $0x804c4d0
 8049224:	e8 e7 f5 ff ff       	call   8048810 <__isoc99_sscanf@plt>
 8049229:	83 c4 20             	add    $0x20,%esp
 804922c:	83 f8 03             	cmp    $0x3,%eax
 804922f:	75 3a                	jne    804926b <phase_defused+0x7b>
 8049231:	83 ec 08             	sub    $0x8,%esp
 8049234:	68 d2 a1 04 08       	push   $0x804a1d2
 8049239:	8d 44 24 18          	lea    0x18(%esp),%eax
 804923d:	50                   	push   %eax
 804923e:	e8 5d fd ff ff       	call   8048fa0 <strings_not_equal>
 8049243:	83 c4 10             	add    $0x10,%esp
 8049246:	85 c0                	test   %eax,%eax
 8049248:	75 21                	jne    804926b <phase_defused+0x7b>
 804924a:	83 ec 0c             	sub    $0xc,%esp
 804924d:	68 98 a0 04 08       	push   $0x804a098
 8049252:	e8 69 f5 ff ff       	call   80487c0 <puts@plt>
 8049257:	c7 04 24 c0 a0 04 08 	movl   $0x804a0c0,(%esp)
 804925e:	e8 5d f5 ff ff       	call   80487c0 <puts@plt>
 8049263:	e8 45 fc ff ff       	call   8048ead <secret_phase>
 8049268:	83 c4 10             	add    $0x10,%esp
 804926b:	83 ec 0c             	sub    $0xc,%esp
 804926e:	68 f8 a0 04 08       	push   $0x804a0f8
 8049273:	e8 48 f5 ff ff       	call   80487c0 <puts@plt>
 8049278:	83 c4 10             	add    $0x10,%esp
 804927b:	8b 44 24 5c          	mov    0x5c(%esp),%eax
 804927f:	65 33 05 14 00 00 00 	xor    %gs:0x14,%eax
 8049286:	74 05                	je     804928d <phase_defused+0x9d>
 8049288:	e8 03 f5 ff ff       	call   8048790 <__stack_chk_fail@plt>
 804928d:	83 c4 6c             	add    $0x6c,%esp
 8049290:	c3                   	ret    

08049291 <sigalrm_handler>:
 8049291:	83 ec 0c             	sub    $0xc,%esp
 8049294:	6a 00                	push   $0x0
 8049296:	68 28 a2 04 08       	push   $0x804a228
 804929b:	6a 01                	push   $0x1
 804929d:	ff 35 a0 c3 04 08    	pushl  0x804c3a0
 80492a3:	e8 b8 f5 ff ff       	call   8048860 <__fprintf_chk@plt>
 80492a8:	c7 04 24 01 00 00 00 	movl   $0x1,(%esp)
 80492af:	e8 2c f5 ff ff       	call   80487e0 <exit@plt>

080492b4 <rio_readlineb>:
 80492b4:	55                   	push   %ebp
 80492b5:	57                   	push   %edi
 80492b6:	56                   	push   %esi
 80492b7:	53                   	push   %ebx
 80492b8:	83 ec 2c             	sub    $0x2c,%esp
 80492bb:	89 d7                	mov    %edx,%edi
 80492bd:	89 4c 24 0c          	mov    %ecx,0xc(%esp)
 80492c1:	65 8b 15 14 00 00 00 	mov    %gs:0x14,%edx
 80492c8:	89 54 24 1c          	mov    %edx,0x1c(%esp)
 80492cc:	31 d2                	xor    %edx,%edx
 80492ce:	83 f9 01             	cmp    $0x1,%ecx
 80492d1:	76 79                	jbe    804934c <rio_readlineb+0x98>
 80492d3:	89 c3                	mov    %eax,%ebx
 80492d5:	89 4c 24 08          	mov    %ecx,0x8(%esp)
 80492d9:	bd 01 00 00 00       	mov    $0x1,%ebp
 80492de:	8d 73 0c             	lea    0xc(%ebx),%esi
 80492e1:	eb 2d                	jmp    8049310 <rio_readlineb+0x5c>
 80492e3:	83 ec 04             	sub    $0x4,%esp
 80492e6:	68 00 20 00 00       	push   $0x2000
 80492eb:	56                   	push   %esi
 80492ec:	ff 33                	pushl  (%ebx)
 80492ee:	e8 3d f4 ff ff       	call   8048730 <read@plt>
 80492f3:	89 43 04             	mov    %eax,0x4(%ebx)
 80492f6:	83 c4 10             	add    $0x10,%esp
 80492f9:	85 c0                	test   %eax,%eax
 80492fb:	79 0c                	jns    8049309 <rio_readlineb+0x55>
 80492fd:	e8 2e f5 ff ff       	call   8048830 <__errno_location@plt>
 8049302:	83 38 04             	cmpl   $0x4,(%eax)
 8049305:	74 09                	je     8049310 <rio_readlineb+0x5c>
 8049307:	eb 62                	jmp    804936b <rio_readlineb+0xb7>
 8049309:	85 c0                	test   %eax,%eax
 804930b:	74 63                	je     8049370 <rio_readlineb+0xbc>
 804930d:	89 73 08             	mov    %esi,0x8(%ebx)
 8049310:	8b 43 04             	mov    0x4(%ebx),%eax
 8049313:	85 c0                	test   %eax,%eax
 8049315:	7e cc                	jle    80492e3 <rio_readlineb+0x2f>
 8049317:	8b 4b 08             	mov    0x8(%ebx),%ecx
 804931a:	0f b6 11             	movzbl (%ecx),%edx
 804931d:	88 54 24 1b          	mov    %dl,0x1b(%esp)
 8049321:	83 c1 01             	add    $0x1,%ecx
 8049324:	89 4b 08             	mov    %ecx,0x8(%ebx)
 8049327:	83 e8 01             	sub    $0x1,%eax
 804932a:	89 43 04             	mov    %eax,0x4(%ebx)
 804932d:	83 c7 01             	add    $0x1,%edi
 8049330:	88 57 ff             	mov    %dl,-0x1(%edi)
 8049333:	80 fa 0a             	cmp    $0xa,%dl
 8049336:	75 09                	jne    8049341 <rio_readlineb+0x8d>
 8049338:	eb 1d                	jmp    8049357 <rio_readlineb+0xa3>
 804933a:	83 fd 01             	cmp    $0x1,%ebp
 804933d:	75 18                	jne    8049357 <rio_readlineb+0xa3>
 804933f:	eb 1b                	jmp    804935c <rio_readlineb+0xa8>
 8049341:	83 c5 01             	add    $0x1,%ebp
 8049344:	3b 6c 24 08          	cmp    0x8(%esp),%ebp
 8049348:	74 09                	je     8049353 <rio_readlineb+0x9f>
 804934a:	eb c4                	jmp    8049310 <rio_readlineb+0x5c>
 804934c:	bd 01 00 00 00       	mov    $0x1,%ebp
 8049351:	eb 04                	jmp    8049357 <rio_readlineb+0xa3>
 8049353:	8b 6c 24 0c          	mov    0xc(%esp),%ebp
 8049357:	c6 07 00             	movb   $0x0,(%edi)
 804935a:	89 e8                	mov    %ebp,%eax
 804935c:	8b 54 24 1c          	mov    0x1c(%esp),%edx
 8049360:	65 33 15 14 00 00 00 	xor    %gs:0x14,%edx
 8049367:	74 17                	je     8049380 <rio_readlineb+0xcc>
 8049369:	eb 10                	jmp    804937b <rio_readlineb+0xc7>
 804936b:	b8 ff ff ff ff       	mov    $0xffffffff,%eax
 8049370:	85 c0                	test   %eax,%eax
 8049372:	74 c6                	je     804933a <rio_readlineb+0x86>
 8049374:	b8 ff ff ff ff       	mov    $0xffffffff,%eax
 8049379:	eb e1                	jmp    804935c <rio_readlineb+0xa8>
 804937b:	e8 10 f4 ff ff       	call   8048790 <__stack_chk_fail@plt>
 8049380:	83 c4 2c             	add    $0x2c,%esp
 8049383:	5b                   	pop    %ebx
 8049384:	5e                   	pop    %esi
 8049385:	5f                   	pop    %edi
 8049386:	5d                   	pop    %ebp
 8049387:	c3                   	ret    

08049388 <submitr>:
 8049388:	55                   	push   %ebp
 8049389:	57                   	push   %edi
 804938a:	56                   	push   %esi
 804938b:	53                   	push   %ebx
 804938c:	81 ec 60 a0 00 00    	sub    $0xa060,%esp
 8049392:	8b b4 24 74 a0 00 00 	mov    0xa074(%esp),%esi
 8049399:	8b 84 24 7c a0 00 00 	mov    0xa07c(%esp),%eax
 80493a0:	89 44 24 10          	mov    %eax,0x10(%esp)
 80493a4:	8b 84 24 80 a0 00 00 	mov    0xa080(%esp),%eax
 80493ab:	89 44 24 14          	mov    %eax,0x14(%esp)
 80493af:	8b 84 24 84 a0 00 00 	mov    0xa084(%esp),%eax
 80493b6:	89 44 24 18          	mov    %eax,0x18(%esp)
 80493ba:	8b 9c 24 88 a0 00 00 	mov    0xa088(%esp),%ebx
 80493c1:	8b 84 24 8c a0 00 00 	mov    0xa08c(%esp),%eax
 80493c8:	89 44 24 1c          	mov    %eax,0x1c(%esp)
 80493cc:	65 a1 14 00 00 00    	mov    %gs:0x14,%eax
 80493d2:	89 84 24 50 a0 00 00 	mov    %eax,0xa050(%esp)
 80493d9:	31 c0                	xor    %eax,%eax
 80493db:	c7 44 24 30 00 00 00 	movl   $0x0,0x30(%esp)
 80493e2:	00 
 80493e3:	6a 00                	push   $0x0
 80493e5:	6a 01                	push   $0x1
 80493e7:	6a 02                	push   $0x2
 80493e9:	e8 62 f4 ff ff       	call   8048850 <socket@plt>
 80493ee:	89 44 24 18          	mov    %eax,0x18(%esp)
 80493f2:	83 c4 10             	add    $0x10,%esp
 80493f5:	85 c0                	test   %eax,%eax
 80493f7:	79 52                	jns    804944b <submitr+0xc3>
 80493f9:	8b 44 24 18          	mov    0x18(%esp),%eax
 80493fd:	c7 00 45 72 72 6f    	movl   $0x6f727245,(%eax)
 8049403:	c7 40 04 72 3a 20 43 	movl   $0x43203a72,0x4(%eax)
 804940a:	c7 40 08 6c 69 65 6e 	movl   $0x6e65696c,0x8(%eax)
 8049411:	c7 40 0c 74 20 75 6e 	movl   $0x6e752074,0xc(%eax)
 8049418:	c7 40 10 61 62 6c 65 	movl   $0x656c6261,0x10(%eax)
 804941f:	c7 40 14 20 74 6f 20 	movl   $0x206f7420,0x14(%eax)
 8049426:	c7 40 18 63 72 65 61 	movl   $0x61657263,0x18(%eax)
 804942d:	c7 40 1c 74 65 20 73 	movl   $0x73206574,0x1c(%eax)
 8049434:	c7 40 20 6f 63 6b 65 	movl   $0x656b636f,0x20(%eax)
 804943b:	66 c7 40 24 74 00    	movw   $0x74,0x24(%eax)
 8049441:	b8 ff ff ff ff       	mov    $0xffffffff,%eax
 8049446:	e9 3f 06 00 00       	jmp    8049a8a <submitr+0x702>
 804944b:	83 ec 0c             	sub    $0xc,%esp
 804944e:	56                   	push   %esi
 804944f:	e8 1c f4 ff ff       	call   8048870 <gethostbyname@plt>
 8049454:	83 c4 10             	add    $0x10,%esp
 8049457:	85 c0                	test   %eax,%eax
 8049459:	75 73                	jne    80494ce <submitr+0x146>
 804945b:	8b 44 24 18          	mov    0x18(%esp),%eax
 804945f:	c7 00 45 72 72 6f    	movl   $0x6f727245,(%eax)
 8049465:	c7 40 04 72 3a 20 44 	movl   $0x44203a72,0x4(%eax)
 804946c:	c7 40 08 4e 53 20 69 	movl   $0x6920534e,0x8(%eax)
 8049473:	c7 40 0c 73 20 75 6e 	movl   $0x6e752073,0xc(%eax)
 804947a:	c7 40 10 61 62 6c 65 	movl   $0x656c6261,0x10(%eax)
 8049481:	c7 40 14 20 74 6f 20 	movl   $0x206f7420,0x14(%eax)
 8049488:	c7 40 18 72 65 73 6f 	movl   $0x6f736572,0x18(%eax)
 804948f:	c7 40 1c 6c 76 65 20 	movl   $0x2065766c,0x1c(%eax)
 8049496:	c7 40 20 73 65 72 76 	movl   $0x76726573,0x20(%eax)
 804949d:	c7 40 24 65 72 20 61 	movl   $0x61207265,0x24(%eax)
 80494a4:	c7 40 28 64 64 72 65 	movl   $0x65726464,0x28(%eax)
 80494ab:	66 c7 40 2c 73 73    	movw   $0x7373,0x2c(%eax)
 80494b1:	c6 40 2e 00          	movb   $0x0,0x2e(%eax)
 80494b5:	83 ec 0c             	sub    $0xc,%esp
 80494b8:	ff 74 24 14          	pushl  0x14(%esp)
 80494bc:	e8 df f3 ff ff       	call   80488a0 <close@plt>
 80494c1:	83 c4 10             	add    $0x10,%esp
 80494c4:	b8 ff ff ff ff       	mov    $0xffffffff,%eax
 80494c9:	e9 bc 05 00 00       	jmp    8049a8a <submitr+0x702>
 80494ce:	8d 74 24 30          	lea    0x30(%esp),%esi
 80494d2:	c7 44 24 30 00 00 00 	movl   $0x0,0x30(%esp)
 80494d9:	00 
 80494da:	c7 44 24 34 00 00 00 	movl   $0x0,0x34(%esp)
 80494e1:	00 
 80494e2:	c7 44 24 38 00 00 00 	movl   $0x0,0x38(%esp)
 80494e9:	00 
 80494ea:	c7 44 24 3c 00 00 00 	movl   $0x0,0x3c(%esp)
 80494f1:	00 
 80494f2:	66 c7 44 24 30 02 00 	movw   $0x2,0x30(%esp)
 80494f9:	6a 0c                	push   $0xc
 80494fb:	ff 70 0c             	pushl  0xc(%eax)
 80494fe:	8b 40 10             	mov    0x10(%eax),%eax
 8049501:	ff 30                	pushl  (%eax)
 8049503:	8d 44 24 40          	lea    0x40(%esp),%eax
 8049507:	50                   	push   %eax
 8049508:	e8 c3 f2 ff ff       	call   80487d0 <__memmove_chk@plt>
 804950d:	0f b7 84 24 84 a0 00 	movzwl 0xa084(%esp),%eax
 8049514:	00 
 8049515:	66 c1 c8 08          	ror    $0x8,%ax
 8049519:	66 89 44 24 42       	mov    %ax,0x42(%esp)
 804951e:	83 c4 0c             	add    $0xc,%esp
 8049521:	6a 10                	push   $0x10
 8049523:	56                   	push   %esi
 8049524:	ff 74 24 14          	pushl  0x14(%esp)
 8049528:	e8 63 f3 ff ff       	call   8048890 <connect@plt>
 804952d:	83 c4 10             	add    $0x10,%esp
 8049530:	85 c0                	test   %eax,%eax
 8049532:	79 65                	jns    8049599 <submitr+0x211>
 8049534:	8b 44 24 18          	mov    0x18(%esp),%eax
 8049538:	c7 00 45 72 72 6f    	movl   $0x6f727245,(%eax)
 804953e:	c7 40 04 72 3a 20 55 	movl   $0x55203a72,0x4(%eax)
 8049545:	c7 40 08 6e 61 62 6c 	movl   $0x6c62616e,0x8(%eax)
 804954c:	c7 40 0c 65 20 74 6f 	movl   $0x6f742065,0xc(%eax)
 8049553:	c7 40 10 20 63 6f 6e 	movl   $0x6e6f6320,0x10(%eax)
 804955a:	c7 40 14 6e 65 63 74 	movl   $0x7463656e,0x14(%eax)
 8049561:	c7 40 18 20 74 6f 20 	movl   $0x206f7420,0x18(%eax)
 8049568:	c7 40 1c 74 68 65 20 	movl   $0x20656874,0x1c(%eax)
 804956f:	c7 40 20 73 65 72 76 	movl   $0x76726573,0x20(%eax)
 8049576:	66 c7 40 24 65 72    	movw   $0x7265,0x24(%eax)
 804957c:	c6 40 26 00          	movb   $0x0,0x26(%eax)
 8049580:	83 ec 0c             	sub    $0xc,%esp
 8049583:	ff 74 24 14          	pushl  0x14(%esp)
 8049587:	e8 14 f3 ff ff       	call   80488a0 <close@plt>
 804958c:	83 c4 10             	add    $0x10,%esp
 804958f:	b8 ff ff ff ff       	mov    $0xffffffff,%eax
 8049594:	e9 f1 04 00 00       	jmp    8049a8a <submitr+0x702>
 8049599:	be ff ff ff ff       	mov    $0xffffffff,%esi
 804959e:	b8 00 00 00 00       	mov    $0x0,%eax
 80495a3:	89 f1                	mov    %esi,%ecx
 80495a5:	89 df                	mov    %ebx,%edi
 80495a7:	f2 ae                	repnz scas %es:(%edi),%al
 80495a9:	f7 d1                	not    %ecx
 80495ab:	89 cd                	mov    %ecx,%ebp
 80495ad:	89 f1                	mov    %esi,%ecx
 80495af:	8b 7c 24 0c          	mov    0xc(%esp),%edi
 80495b3:	f2 ae                	repnz scas %es:(%edi),%al
 80495b5:	89 4c 24 1c          	mov    %ecx,0x1c(%esp)
 80495b9:	89 f1                	mov    %esi,%ecx
 80495bb:	8b 7c 24 10          	mov    0x10(%esp),%edi
 80495bf:	f2 ae                	repnz scas %es:(%edi),%al
 80495c1:	89 ca                	mov    %ecx,%edx
 80495c3:	f7 d2                	not    %edx
 80495c5:	89 f1                	mov    %esi,%ecx
 80495c7:	8b 7c 24 14          	mov    0x14(%esp),%edi
 80495cb:	f2 ae                	repnz scas %es:(%edi),%al
 80495cd:	2b 54 24 1c          	sub    0x1c(%esp),%edx
 80495d1:	29 ca                	sub    %ecx,%edx
 80495d3:	8d 44 6d fd          	lea    -0x3(%ebp,%ebp,2),%eax
 80495d7:	8d 44 02 7b          	lea    0x7b(%edx,%eax,1),%eax
 80495db:	3d 00 20 00 00       	cmp    $0x2000,%eax
 80495e0:	76 7e                	jbe    8049660 <submitr+0x2d8>
 80495e2:	8b 44 24 18          	mov    0x18(%esp),%eax
 80495e6:	c7 00 45 72 72 6f    	movl   $0x6f727245,(%eax)
 80495ec:	c7 40 04 72 3a 20 52 	movl   $0x52203a72,0x4(%eax)
 80495f3:	c7 40 08 65 73 75 6c 	movl   $0x6c757365,0x8(%eax)
 80495fa:	c7 40 0c 74 20 73 74 	movl   $0x74732074,0xc(%eax)
 8049601:	c7 40 10 72 69 6e 67 	movl   $0x676e6972,0x10(%eax)
 8049608:	c7 40 14 20 74 6f 6f 	movl   $0x6f6f7420,0x14(%eax)
 804960f:	c7 40 18 20 6c 61 72 	movl   $0x72616c20,0x18(%eax)
 8049616:	c7 40 1c 67 65 2e 20 	movl   $0x202e6567,0x1c(%eax)
 804961d:	c7 40 20 49 6e 63 72 	movl   $0x72636e49,0x20(%eax)
 8049624:	c7 40 24 65 61 73 65 	movl   $0x65736165,0x24(%eax)
 804962b:	c7 40 28 20 53 55 42 	movl   $0x42555320,0x28(%eax)
 8049632:	c7 40 2c 4d 49 54 52 	movl   $0x5254494d,0x2c(%eax)
 8049639:	c7 40 30 5f 4d 41 58 	movl   $0x58414d5f,0x30(%eax)
 8049640:	c7 40 34 42 55 46 00 	movl   $0x465542,0x34(%eax)
 8049647:	83 ec 0c             	sub    $0xc,%esp
 804964a:	ff 74 24 14          	pushl  0x14(%esp)
 804964e:	e8 4d f2 ff ff       	call   80488a0 <close@plt>
 8049653:	83 c4 10             	add    $0x10,%esp
 8049656:	b8 ff ff ff ff       	mov    $0xffffffff,%eax
 804965b:	e9 2a 04 00 00       	jmp    8049a8a <submitr+0x702>
 8049660:	8d 94 24 4c 40 00 00 	lea    0x404c(%esp),%edx
 8049667:	b9 00 08 00 00       	mov    $0x800,%ecx
 804966c:	b8 00 00 00 00       	mov    $0x0,%eax
 8049671:	89 d7                	mov    %edx,%edi
 8049673:	f3 ab                	rep stos %eax,%es:(%edi)
 8049675:	b9 ff ff ff ff       	mov    $0xffffffff,%ecx
 804967a:	89 df                	mov    %ebx,%edi
 804967c:	f2 ae                	repnz scas %es:(%edi),%al
 804967e:	f7 d1                	not    %ecx
 8049680:	89 ce                	mov    %ecx,%esi
 8049682:	83 ee 01             	sub    $0x1,%esi
 8049685:	0f 84 5c 04 00 00    	je     8049ae7 <submitr+0x75f>
 804968b:	89 d5                	mov    %edx,%ebp
 804968d:	bf d9 ff 00 00       	mov    $0xffd9,%edi
 8049692:	0f b6 13             	movzbl (%ebx),%edx
 8049695:	8d 4a d6             	lea    -0x2a(%edx),%ecx
 8049698:	b8 01 00 00 00       	mov    $0x1,%eax
 804969d:	80 f9 0f             	cmp    $0xf,%cl
 80496a0:	77 0a                	ja     80496ac <submitr+0x324>
 80496a2:	89 f8                	mov    %edi,%eax
 80496a4:	d3 e8                	shr    %cl,%eax
 80496a6:	83 f0 01             	xor    $0x1,%eax
 80496a9:	83 e0 01             	and    $0x1,%eax
 80496ac:	80 fa 5f             	cmp    $0x5f,%dl
 80496af:	0f 94 c1             	sete   %cl
 80496b2:	38 c1                	cmp    %al,%cl
 80496b4:	73 0c                	jae    80496c2 <submitr+0x33a>
 80496b6:	89 d0                	mov    %edx,%eax
 80496b8:	83 e0 df             	and    $0xffffffdf,%eax
 80496bb:	83 e8 41             	sub    $0x41,%eax
 80496be:	3c 19                	cmp    $0x19,%al
 80496c0:	77 08                	ja     80496ca <submitr+0x342>
 80496c2:	88 55 00             	mov    %dl,0x0(%ebp)
 80496c5:	8d 6d 01             	lea    0x1(%ebp),%ebp
 80496c8:	eb 62                	jmp    804972c <submitr+0x3a4>
 80496ca:	80 fa 20             	cmp    $0x20,%dl
 80496cd:	75 09                	jne    80496d8 <submitr+0x350>
 80496cf:	c6 45 00 2b          	movb   $0x2b,0x0(%ebp)
 80496d3:	8d 6d 01             	lea    0x1(%ebp),%ebp
 80496d6:	eb 54                	jmp    804972c <submitr+0x3a4>
 80496d8:	8d 42 e0             	lea    -0x20(%edx),%eax
 80496db:	3c 5f                	cmp    $0x5f,%al
 80496dd:	76 09                	jbe    80496e8 <submitr+0x360>
 80496df:	80 fa 09             	cmp    $0x9,%dl
 80496e2:	0f 85 bb 03 00 00    	jne    8049aa3 <submitr+0x71b>
 80496e8:	83 ec 0c             	sub    $0xc,%esp
 80496eb:	0f b6 d2             	movzbl %dl,%edx
 80496ee:	52                   	push   %edx
 80496ef:	68 34 a3 04 08       	push   $0x804a334
 80496f4:	6a 08                	push   $0x8
 80496f6:	6a 01                	push   $0x1
 80496f8:	8d 84 24 68 80 00 00 	lea    0x8068(%esp),%eax
 80496ff:	50                   	push   %eax
 8049700:	e8 bb f1 ff ff       	call   80488c0 <__sprintf_chk@plt>
 8049705:	0f b6 84 24 6c 80 00 	movzbl 0x806c(%esp),%eax
 804970c:	00 
 804970d:	88 45 00             	mov    %al,0x0(%ebp)
 8049710:	0f b6 84 24 6d 80 00 	movzbl 0x806d(%esp),%eax
 8049717:	00 
 8049718:	88 45 01             	mov    %al,0x1(%ebp)
 804971b:	0f b6 84 24 6e 80 00 	movzbl 0x806e(%esp),%eax
 8049722:	00 
 8049723:	88 45 02             	mov    %al,0x2(%ebp)
 8049726:	83 c4 20             	add    $0x20,%esp
 8049729:	8d 6d 03             	lea    0x3(%ebp),%ebp
 804972c:	83 c3 01             	add    $0x1,%ebx
 804972f:	83 ee 01             	sub    $0x1,%esi
 8049732:	0f 85 5a ff ff ff    	jne    8049692 <submitr+0x30a>
 8049738:	e9 aa 03 00 00       	jmp    8049ae7 <submitr+0x75f>
 804973d:	83 ec 04             	sub    $0x4,%esp
 8049740:	53                   	push   %ebx
 8049741:	56                   	push   %esi
 8049742:	55                   	push   %ebp
 8049743:	e8 b8 f0 ff ff       	call   8048800 <write@plt>
 8049748:	83 c4 10             	add    $0x10,%esp
 804974b:	85 c0                	test   %eax,%eax
 804974d:	7f 0f                	jg     804975e <submitr+0x3d6>
 804974f:	e8 dc f0 ff ff       	call   8048830 <__errno_location@plt>
 8049754:	83 38 04             	cmpl   $0x4,(%eax)
 8049757:	75 0f                	jne    8049768 <submitr+0x3e0>
 8049759:	b8 00 00 00 00       	mov    $0x0,%eax
 804975e:	01 c6                	add    %eax,%esi
 8049760:	29 c3                	sub    %eax,%ebx
 8049762:	75 d9                	jne    804973d <submitr+0x3b5>
 8049764:	85 ff                	test   %edi,%edi
 8049766:	79 69                	jns    80497d1 <submitr+0x449>
 8049768:	8b 44 24 18          	mov    0x18(%esp),%eax
 804976c:	c7 00 45 72 72 6f    	movl   $0x6f727245,(%eax)
 8049772:	c7 40 04 72 3a 20 43 	movl   $0x43203a72,0x4(%eax)
 8049779:	c7 40 08 6c 69 65 6e 	movl   $0x6e65696c,0x8(%eax)
 8049780:	c7 40 0c 74 20 75 6e 	movl   $0x6e752074,0xc(%eax)
 8049787:	c7 40 10 61 62 6c 65 	movl   $0x656c6261,0x10(%eax)
 804978e:	c7 40 14 20 74 6f 20 	movl   $0x206f7420,0x14(%eax)
 8049795:	c7 40 18 77 72 69 74 	movl   $0x74697277,0x18(%eax)
 804979c:	c7 40 1c 65 20 74 6f 	movl   $0x6f742065,0x1c(%eax)
 80497a3:	c7 40 20 20 74 68 65 	movl   $0x65687420,0x20(%eax)
 80497aa:	c7 40 24 20 73 65 72 	movl   $0x72657320,0x24(%eax)
 80497b1:	c7 40 28 76 65 72 00 	movl   $0x726576,0x28(%eax)
 80497b8:	83 ec 0c             	sub    $0xc,%esp
 80497bb:	ff 74 24 14          	pushl  0x14(%esp)
 80497bf:	e8 dc f0 ff ff       	call   80488a0 <close@plt>
 80497c4:	83 c4 10             	add    $0x10,%esp
 80497c7:	b8 ff ff ff ff       	mov    $0xffffffff,%eax
 80497cc:	e9 b9 02 00 00       	jmp    8049a8a <submitr+0x702>
 80497d1:	8b 44 24 08          	mov    0x8(%esp),%eax
 80497d5:	89 44 24 40          	mov    %eax,0x40(%esp)
 80497d9:	c7 44 24 44 00 00 00 	movl   $0x0,0x44(%esp)
 80497e0:	00 
 80497e1:	8d 44 24 4c          	lea    0x4c(%esp),%eax
 80497e5:	89 44 24 48          	mov    %eax,0x48(%esp)
 80497e9:	b9 00 20 00 00       	mov    $0x2000,%ecx
 80497ee:	8d 94 24 4c 20 00 00 	lea    0x204c(%esp),%edx
 80497f5:	8d 44 24 40          	lea    0x40(%esp),%eax
 80497f9:	e8 b6 fa ff ff       	call   80492b4 <rio_readlineb>
 80497fe:	85 c0                	test   %eax,%eax
 8049800:	7f 7d                	jg     804987f <submitr+0x4f7>
 8049802:	8b 44 24 18          	mov    0x18(%esp),%eax
 8049806:	c7 00 45 72 72 6f    	movl   $0x6f727245,(%eax)
 804980c:	c7 40 04 72 3a 20 43 	movl   $0x43203a72,0x4(%eax)
 8049813:	c7 40 08 6c 69 65 6e 	movl   $0x6e65696c,0x8(%eax)
 804981a:	c7 40 0c 74 20 75 6e 	movl   $0x6e752074,0xc(%eax)
 8049821:	c7 40 10 61 62 6c 65 	movl   $0x656c6261,0x10(%eax)
 8049828:	c7 40 14 20 74 6f 20 	movl   $0x206f7420,0x14(%eax)
 804982f:	c7 40 18 72 65 61 64 	movl   $0x64616572,0x18(%eax)
 8049836:	c7 40 1c 20 66 69 72 	movl   $0x72696620,0x1c(%eax)
 804983d:	c7 40 20 73 74 20 68 	movl   $0x68207473,0x20(%eax)
 8049844:	c7 40 24 65 61 64 65 	movl   $0x65646165,0x24(%eax)
 804984b:	c7 40 28 72 20 66 72 	movl   $0x72662072,0x28(%eax)
 8049852:	c7 40 2c 6f 6d 20 73 	movl   $0x73206d6f,0x2c(%eax)
 8049859:	c7 40 30 65 72 76 65 	movl   $0x65767265,0x30(%eax)
 8049860:	66 c7 40 34 72 00    	movw   $0x72,0x34(%eax)
 8049866:	83 ec 0c             	sub    $0xc,%esp
 8049869:	ff 74 24 14          	pushl  0x14(%esp)
 804986d:	e8 2e f0 ff ff       	call   80488a0 <close@plt>
 8049872:	83 c4 10             	add    $0x10,%esp
 8049875:	b8 ff ff ff ff       	mov    $0xffffffff,%eax
 804987a:	e9 0b 02 00 00       	jmp    8049a8a <submitr+0x702>
 804987f:	83 ec 0c             	sub    $0xc,%esp
 8049882:	8d 84 24 58 80 00 00 	lea    0x8058(%esp),%eax
 8049889:	50                   	push   %eax
 804988a:	8d 44 24 3c          	lea    0x3c(%esp),%eax
 804988e:	50                   	push   %eax
 804988f:	8d 84 24 60 60 00 00 	lea    0x6060(%esp),%eax
 8049896:	50                   	push   %eax
 8049897:	68 3b a3 04 08       	push   $0x804a33b
 804989c:	8d 84 24 68 20 00 00 	lea    0x2068(%esp),%eax
 80498a3:	50                   	push   %eax
 80498a4:	e8 67 ef ff ff       	call   8048810 <__isoc99_sscanf@plt>
 80498a9:	8b 44 24 4c          	mov    0x4c(%esp),%eax
 80498ad:	83 c4 20             	add    $0x20,%esp
 80498b0:	3d c8 00 00 00       	cmp    $0xc8,%eax
 80498b5:	0f 84 c4 00 00 00    	je     804997f <submitr+0x5f7>
 80498bb:	83 ec 08             	sub    $0x8,%esp
 80498be:	8d 94 24 54 80 00 00 	lea    0x8054(%esp),%edx
 80498c5:	52                   	push   %edx
 80498c6:	50                   	push   %eax
 80498c7:	68 4c a2 04 08       	push   $0x804a24c
 80498cc:	6a ff                	push   $0xffffffff
 80498ce:	6a 01                	push   $0x1
 80498d0:	ff 74 24 34          	pushl  0x34(%esp)
 80498d4:	e8 e7 ef ff ff       	call   80488c0 <__sprintf_chk@plt>
 80498d9:	83 c4 14             	add    $0x14,%esp
 80498dc:	ff 74 24 14          	pushl  0x14(%esp)
 80498e0:	e8 bb ef ff ff       	call   80488a0 <close@plt>
 80498e5:	83 c4 10             	add    $0x10,%esp
 80498e8:	b8 ff ff ff ff       	mov    $0xffffffff,%eax
 80498ed:	e9 98 01 00 00       	jmp    8049a8a <submitr+0x702>
 80498f2:	b9 00 20 00 00       	mov    $0x2000,%ecx
 80498f7:	8d 94 24 4c 20 00 00 	lea    0x204c(%esp),%edx
 80498fe:	8d 44 24 40          	lea    0x40(%esp),%eax
 8049902:	e8 ad f9 ff ff       	call   80492b4 <rio_readlineb>
 8049907:	85 c0                	test   %eax,%eax
 8049909:	7f 74                	jg     804997f <submitr+0x5f7>
 804990b:	8b 44 24 18          	mov    0x18(%esp),%eax
 804990f:	c7 00 45 72 72 6f    	movl   $0x6f727245,(%eax)
 8049915:	c7 40 04 72 3a 20 43 	movl   $0x43203a72,0x4(%eax)
 804991c:	c7 40 08 6c 69 65 6e 	movl   $0x6e65696c,0x8(%eax)
 8049923:	c7 40 0c 74 20 75 6e 	movl   $0x6e752074,0xc(%eax)
 804992a:	c7 40 10 61 62 6c 65 	movl   $0x656c6261,0x10(%eax)
 8049931:	c7 40 14 20 74 6f 20 	movl   $0x206f7420,0x14(%eax)
 8049938:	c7 40 18 72 65 61 64 	movl   $0x64616572,0x18(%eax)
 804993f:	c7 40 1c 20 68 65 61 	movl   $0x61656820,0x1c(%eax)
 8049946:	c7 40 20 64 65 72 73 	movl   $0x73726564,0x20(%eax)
 804994d:	c7 40 24 20 66 72 6f 	movl   $0x6f726620,0x24(%eax)
 8049954:	c7 40 28 6d 20 73 65 	movl   $0x6573206d,0x28(%eax)
 804995b:	c7 40 2c 72 76 65 72 	movl   $0x72657672,0x2c(%eax)
 8049962:	c6 40 30 00          	movb   $0x0,0x30(%eax)
 8049966:	83 ec 0c             	sub    $0xc,%esp
 8049969:	ff 74 24 14          	pushl  0x14(%esp)
 804996d:	e8 2e ef ff ff       	call   80488a0 <close@plt>
 8049972:	83 c4 10             	add    $0x10,%esp
 8049975:	b8 ff ff ff ff       	mov    $0xffffffff,%eax
 804997a:	e9 0b 01 00 00       	jmp    8049a8a <submitr+0x702>
 804997f:	80 bc 24 4c 20 00 00 	cmpb   $0xd,0x204c(%esp)
 8049986:	0d 
 8049987:	0f 85 65 ff ff ff    	jne    80498f2 <submitr+0x56a>
 804998d:	80 bc 24 4d 20 00 00 	cmpb   $0xa,0x204d(%esp)
 8049994:	0a 
 8049995:	0f 85 57 ff ff ff    	jne    80498f2 <submitr+0x56a>
 804999b:	80 bc 24 4e 20 00 00 	cmpb   $0x0,0x204e(%esp)
 80499a2:	00 
 80499a3:	0f 85 49 ff ff ff    	jne    80498f2 <submitr+0x56a>
 80499a9:	b9 00 20 00 00       	mov    $0x2000,%ecx
 80499ae:	8d 94 24 4c 20 00 00 	lea    0x204c(%esp),%edx
 80499b5:	8d 44 24 40          	lea    0x40(%esp),%eax
 80499b9:	e8 f6 f8 ff ff       	call   80492b4 <rio_readlineb>
 80499be:	85 c0                	test   %eax,%eax
 80499c0:	7f 7b                	jg     8049a3d <submitr+0x6b5>
 80499c2:	8b 44 24 18          	mov    0x18(%esp),%eax
 80499c6:	c7 00 45 72 72 6f    	movl   $0x6f727245,(%eax)
 80499cc:	c7 40 04 72 3a 20 43 	movl   $0x43203a72,0x4(%eax)
 80499d3:	c7 40 08 6c 69 65 6e 	movl   $0x6e65696c,0x8(%eax)
 80499da:	c7 40 0c 74 20 75 6e 	movl   $0x6e752074,0xc(%eax)
 80499e1:	c7 40 10 61 62 6c 65 	movl   $0x656c6261,0x10(%eax)
 80499e8:	c7 40 14 20 74 6f 20 	movl   $0x206f7420,0x14(%eax)
 80499ef:	c7 40 18 72 65 61 64 	movl   $0x64616572,0x18(%eax)
 80499f6:	c7 40 1c 20 73 74 61 	movl   $0x61747320,0x1c(%eax)
 80499fd:	c7 40 20 74 75 73 20 	movl   $0x20737574,0x20(%eax)
 8049a04:	c7 40 24 6d 65 73 73 	movl   $0x7373656d,0x24(%eax)
 8049a0b:	c7 40 28 61 67 65 20 	movl   $0x20656761,0x28(%eax)
 8049a12:	c7 40 2c 66 72 6f 6d 	movl   $0x6d6f7266,0x2c(%eax)
 8049a19:	c7 40 30 20 73 65 72 	movl   $0x72657320,0x30(%eax)
 8049a20:	c7 40 34 76 65 72 00 	movl   $0x726576,0x34(%eax)
 8049a27:	83 ec 0c             	sub    $0xc,%esp
 8049a2a:	ff 74 24 14          	pushl  0x14(%esp)
 8049a2e:	e8 6d ee ff ff       	call   80488a0 <close@plt>
 8049a33:	83 c4 10             	add    $0x10,%esp
 8049a36:	b8 ff ff ff ff       	mov    $0xffffffff,%eax
 8049a3b:	eb 4d                	jmp    8049a8a <submitr+0x702>
 8049a3d:	83 ec 08             	sub    $0x8,%esp
 8049a40:	8d 84 24 54 20 00 00 	lea    0x2054(%esp),%eax
 8049a47:	50                   	push   %eax
 8049a48:	8b 7c 24 24          	mov    0x24(%esp),%edi
 8049a4c:	57                   	push   %edi
 8049a4d:	e8 4e ed ff ff       	call   80487a0 <strcpy@plt>
 8049a52:	83 c4 04             	add    $0x4,%esp
 8049a55:	ff 74 24 14          	pushl  0x14(%esp)
 8049a59:	e8 42 ee ff ff       	call   80488a0 <close@plt>
 8049a5e:	0f b6 17             	movzbl (%edi),%edx
 8049a61:	b8 4f 00 00 00       	mov    $0x4f,%eax
 8049a66:	83 c4 10             	add    $0x10,%esp
 8049a69:	29 d0                	sub    %edx,%eax
 8049a6b:	75 13                	jne    8049a80 <submitr+0x6f8>
 8049a6d:	0f b6 57 01          	movzbl 0x1(%edi),%edx
 8049a71:	b8 4b 00 00 00       	mov    $0x4b,%eax
 8049a76:	29 d0                	sub    %edx,%eax
 8049a78:	75 06                	jne    8049a80 <submitr+0x6f8>
 8049a7a:	0f b6 47 02          	movzbl 0x2(%edi),%eax
 8049a7e:	f7 d8                	neg    %eax
 8049a80:	85 c0                	test   %eax,%eax
 8049a82:	0f 95 c0             	setne  %al
 8049a85:	0f b6 c0             	movzbl %al,%eax
 8049a88:	f7 d8                	neg    %eax
 8049a8a:	8b bc 24 4c a0 00 00 	mov    0xa04c(%esp),%edi
 8049a91:	65 33 3d 14 00 00 00 	xor    %gs:0x14,%edi
 8049a98:	0f 84 a9 00 00 00    	je     8049b47 <submitr+0x7bf>
 8049a9e:	e9 9f 00 00 00       	jmp    8049b42 <submitr+0x7ba>
 8049aa3:	a1 7c a2 04 08       	mov    0x804a27c,%eax
 8049aa8:	8b 7c 24 18          	mov    0x18(%esp),%edi
 8049aac:	89 07                	mov    %eax,(%edi)
 8049aae:	a1 bb a2 04 08       	mov    0x804a2bb,%eax
 8049ab3:	89 47 3f             	mov    %eax,0x3f(%edi)
 8049ab6:	89 f8                	mov    %edi,%eax
 8049ab8:	83 c7 04             	add    $0x4,%edi
 8049abb:	83 e7 fc             	and    $0xfffffffc,%edi
 8049abe:	29 f8                	sub    %edi,%eax
 8049ac0:	be 7c a2 04 08       	mov    $0x804a27c,%esi
 8049ac5:	29 c6                	sub    %eax,%esi
 8049ac7:	83 c0 43             	add    $0x43,%eax
 8049aca:	c1 e8 02             	shr    $0x2,%eax
 8049acd:	89 c1                	mov    %eax,%ecx
 8049acf:	f3 a5                	rep movsl %ds:(%esi),%es:(%edi)
 8049ad1:	83 ec 0c             	sub    $0xc,%esp
 8049ad4:	ff 74 24 14          	pushl  0x14(%esp)
 8049ad8:	e8 c3 ed ff ff       	call   80488a0 <close@plt>
 8049add:	83 c4 10             	add    $0x10,%esp
 8049ae0:	b8 ff ff ff ff       	mov    $0xffffffff,%eax
 8049ae5:	eb a3                	jmp    8049a8a <submitr+0x702>
 8049ae7:	8d 84 24 4c 40 00 00 	lea    0x404c(%esp),%eax
 8049aee:	50                   	push   %eax
 8049aef:	ff 74 24 18          	pushl  0x18(%esp)
 8049af3:	ff 74 24 18          	pushl  0x18(%esp)
 8049af7:	ff 74 24 18          	pushl  0x18(%esp)
 8049afb:	68 c0 a2 04 08       	push   $0x804a2c0
 8049b00:	68 00 20 00 00       	push   $0x2000
 8049b05:	6a 01                	push   $0x1
 8049b07:	8d bc 24 68 20 00 00 	lea    0x2068(%esp),%edi
 8049b0e:	57                   	push   %edi
 8049b0f:	e8 ac ed ff ff       	call   80488c0 <__sprintf_chk@plt>
 8049b14:	b8 00 00 00 00       	mov    $0x0,%eax
 8049b19:	b9 ff ff ff ff       	mov    $0xffffffff,%ecx
 8049b1e:	f2 ae                	repnz scas %es:(%edi),%al
 8049b20:	f7 d1                	not    %ecx
 8049b22:	8d 79 ff             	lea    -0x1(%ecx),%edi
 8049b25:	83 c4 20             	add    $0x20,%esp
 8049b28:	89 fb                	mov    %edi,%ebx
 8049b2a:	8d b4 24 4c 20 00 00 	lea    0x204c(%esp),%esi
 8049b31:	8b 6c 24 08          	mov    0x8(%esp),%ebp
 8049b35:	85 ff                	test   %edi,%edi
 8049b37:	0f 85 00 fc ff ff    	jne    804973d <submitr+0x3b5>
 8049b3d:	e9 8f fc ff ff       	jmp    80497d1 <submitr+0x449>
 8049b42:	e8 49 ec ff ff       	call   8048790 <__stack_chk_fail@plt>
 8049b47:	81 c4 5c a0 00 00    	add    $0xa05c,%esp
 8049b4d:	5b                   	pop    %ebx
 8049b4e:	5e                   	pop    %esi
 8049b4f:	5f                   	pop    %edi
 8049b50:	5d                   	pop    %ebp
 8049b51:	c3                   	ret    

08049b52 <init_timeout>:
 8049b52:	53                   	push   %ebx
 8049b53:	83 ec 08             	sub    $0x8,%esp
 8049b56:	8b 5c 24 10          	mov    0x10(%esp),%ebx
 8049b5a:	85 db                	test   %ebx,%ebx
 8049b5c:	74 24                	je     8049b82 <init_timeout+0x30>
 8049b5e:	83 ec 08             	sub    $0x8,%esp
 8049b61:	68 91 92 04 08       	push   $0x8049291
 8049b66:	6a 0e                	push   $0xe
 8049b68:	e8 f3 eb ff ff       	call   8048760 <signal@plt>
 8049b6d:	85 db                	test   %ebx,%ebx
 8049b6f:	b8 00 00 00 00       	mov    $0x0,%eax
 8049b74:	0f 48 d8             	cmovs  %eax,%ebx
 8049b77:	89 1c 24             	mov    %ebx,(%esp)
 8049b7a:	e8 01 ec ff ff       	call   8048780 <alarm@plt>
 8049b7f:	83 c4 10             	add    $0x10,%esp
 8049b82:	83 c4 08             	add    $0x8,%esp
 8049b85:	5b                   	pop    %ebx
 8049b86:	c3                   	ret    

08049b87 <init_driver>:
 8049b87:	57                   	push   %edi
 8049b88:	56                   	push   %esi
 8049b89:	53                   	push   %ebx
 8049b8a:	83 ec 28             	sub    $0x28,%esp
 8049b8d:	8b 74 24 38          	mov    0x38(%esp),%esi
 8049b91:	65 a1 14 00 00 00    	mov    %gs:0x14,%eax
 8049b97:	89 44 24 24          	mov    %eax,0x24(%esp)
 8049b9b:	31 c0                	xor    %eax,%eax
 8049b9d:	6a 01                	push   $0x1
 8049b9f:	6a 0d                	push   $0xd
 8049ba1:	e8 ba eb ff ff       	call   8048760 <signal@plt>
 8049ba6:	83 c4 08             	add    $0x8,%esp
 8049ba9:	6a 01                	push   $0x1
 8049bab:	6a 1d                	push   $0x1d
 8049bad:	e8 ae eb ff ff       	call   8048760 <signal@plt>
 8049bb2:	83 c4 08             	add    $0x8,%esp
 8049bb5:	6a 01                	push   $0x1
 8049bb7:	6a 1d                	push   $0x1d
 8049bb9:	e8 a2 eb ff ff       	call   8048760 <signal@plt>
 8049bbe:	83 c4 0c             	add    $0xc,%esp
 8049bc1:	6a 00                	push   $0x0
 8049bc3:	6a 01                	push   $0x1
 8049bc5:	6a 02                	push   $0x2
 8049bc7:	e8 84 ec ff ff       	call   8048850 <socket@plt>
 8049bcc:	83 c4 10             	add    $0x10,%esp
 8049bcf:	85 c0                	test   %eax,%eax
 8049bd1:	79 4e                	jns    8049c21 <init_driver+0x9a>
 8049bd3:	c7 06 45 72 72 6f    	movl   $0x6f727245,(%esi)
 8049bd9:	c7 46 04 72 3a 20 43 	movl   $0x43203a72,0x4(%esi)
 8049be0:	c7 46 08 6c 69 65 6e 	movl   $0x6e65696c,0x8(%esi)
 8049be7:	c7 46 0c 74 20 75 6e 	movl   $0x6e752074,0xc(%esi)
 8049bee:	c7 46 10 61 62 6c 65 	movl   $0x656c6261,0x10(%esi)
 8049bf5:	c7 46 14 20 74 6f 20 	movl   $0x206f7420,0x14(%esi)
 8049bfc:	c7 46 18 63 72 65 61 	movl   $0x61657263,0x18(%esi)
 8049c03:	c7 46 1c 74 65 20 73 	movl   $0x73206574,0x1c(%esi)
 8049c0a:	c7 46 20 6f 63 6b 65 	movl   $0x656b636f,0x20(%esi)
 8049c11:	66 c7 46 24 74 00    	movw   $0x74,0x24(%esi)
 8049c17:	b8 ff ff ff ff       	mov    $0xffffffff,%eax
 8049c1c:	e9 1f 01 00 00       	jmp    8049d40 <init_driver+0x1b9>
 8049c21:	89 c3                	mov    %eax,%ebx
 8049c23:	83 ec 0c             	sub    $0xc,%esp
 8049c26:	68 4c a3 04 08       	push   $0x804a34c
 8049c2b:	e8 40 ec ff ff       	call   8048870 <gethostbyname@plt>
 8049c30:	83 c4 10             	add    $0x10,%esp
 8049c33:	85 c0                	test   %eax,%eax
 8049c35:	75 6c                	jne    8049ca3 <init_driver+0x11c>
 8049c37:	c7 06 45 72 72 6f    	movl   $0x6f727245,(%esi)
 8049c3d:	c7 46 04 72 3a 20 44 	movl   $0x44203a72,0x4(%esi)
 8049c44:	c7 46 08 4e 53 20 69 	movl   $0x6920534e,0x8(%esi)
 8049c4b:	c7 46 0c 73 20 75 6e 	movl   $0x6e752073,0xc(%esi)
 8049c52:	c7 46 10 61 62 6c 65 	movl   $0x656c6261,0x10(%esi)
 8049c59:	c7 46 14 20 74 6f 20 	movl   $0x206f7420,0x14(%esi)
 8049c60:	c7 46 18 72 65 73 6f 	movl   $0x6f736572,0x18(%esi)
 8049c67:	c7 46 1c 6c 76 65 20 	movl   $0x2065766c,0x1c(%esi)
 8049c6e:	c7 46 20 73 65 72 76 	movl   $0x76726573,0x20(%esi)
 8049c75:	c7 46 24 65 72 20 61 	movl   $0x61207265,0x24(%esi)
 8049c7c:	c7 46 28 64 64 72 65 	movl   $0x65726464,0x28(%esi)
 8049c83:	66 c7 46 2c 73 73    	movw   $0x7373,0x2c(%esi)
 8049c89:	c6 46 2e 00          	movb   $0x0,0x2e(%esi)
 8049c8d:	83 ec 0c             	sub    $0xc,%esp
 8049c90:	53                   	push   %ebx
 8049c91:	e8 0a ec ff ff       	call   80488a0 <close@plt>
 8049c96:	83 c4 10             	add    $0x10,%esp
 8049c99:	b8 ff ff ff ff       	mov    $0xffffffff,%eax
 8049c9e:	e9 9d 00 00 00       	jmp    8049d40 <init_driver+0x1b9>
 8049ca3:	8d 7c 24 0c          	lea    0xc(%esp),%edi
 8049ca7:	c7 44 24 0c 00 00 00 	movl   $0x0,0xc(%esp)
 8049cae:	00 
 8049caf:	c7 44 24 10 00 00 00 	movl   $0x0,0x10(%esp)
 8049cb6:	00 
 8049cb7:	c7 44 24 14 00 00 00 	movl   $0x0,0x14(%esp)
 8049cbe:	00 
 8049cbf:	c7 44 24 18 00 00 00 	movl   $0x0,0x18(%esp)
 8049cc6:	00 
 8049cc7:	66 c7 44 24 0c 02 00 	movw   $0x2,0xc(%esp)
 8049cce:	6a 0c                	push   $0xc
 8049cd0:	ff 70 0c             	pushl  0xc(%eax)
 8049cd3:	8b 40 10             	mov    0x10(%eax),%eax
 8049cd6:	ff 30                	pushl  (%eax)
 8049cd8:	8d 44 24 1c          	lea    0x1c(%esp),%eax
 8049cdc:	50                   	push   %eax
 8049cdd:	e8 ee ea ff ff       	call   80487d0 <__memmove_chk@plt>
 8049ce2:	66 c7 44 24 1e 3b 6e 	movw   $0x6e3b,0x1e(%esp)
 8049ce9:	83 c4 0c             	add    $0xc,%esp
 8049cec:	6a 10                	push   $0x10
 8049cee:	57                   	push   %edi
 8049cef:	53                   	push   %ebx
 8049cf0:	e8 9b eb ff ff       	call   8048890 <connect@plt>
 8049cf5:	83 c4 10             	add    $0x10,%esp
 8049cf8:	85 c0                	test   %eax,%eax
 8049cfa:	79 2a                	jns    8049d26 <init_driver+0x19f>
 8049cfc:	83 ec 0c             	sub    $0xc,%esp
 8049cff:	68 4c a3 04 08       	push   $0x804a34c
 8049d04:	68 0c a3 04 08       	push   $0x804a30c
 8049d09:	6a ff                	push   $0xffffffff
 8049d0b:	6a 01                	push   $0x1
 8049d0d:	56                   	push   %esi
 8049d0e:	e8 ad eb ff ff       	call   80488c0 <__sprintf_chk@plt>
 8049d13:	83 c4 14             	add    $0x14,%esp
 8049d16:	53                   	push   %ebx
 8049d17:	e8 84 eb ff ff       	call   80488a0 <close@plt>
 8049d1c:	83 c4 10             	add    $0x10,%esp
 8049d1f:	b8 ff ff ff ff       	mov    $0xffffffff,%eax
 8049d24:	eb 1a                	jmp    8049d40 <init_driver+0x1b9>
 8049d26:	83 ec 0c             	sub    $0xc,%esp
 8049d29:	53                   	push   %ebx
 8049d2a:	e8 71 eb ff ff       	call   80488a0 <close@plt>
 8049d2f:	66 c7 06 4f 4b       	movw   $0x4b4f,(%esi)
 8049d34:	c6 46 02 00          	movb   $0x0,0x2(%esi)
 8049d38:	83 c4 10             	add    $0x10,%esp
 8049d3b:	b8 00 00 00 00       	mov    $0x0,%eax
 8049d40:	8b 54 24 1c          	mov    0x1c(%esp),%edx
 8049d44:	65 33 15 14 00 00 00 	xor    %gs:0x14,%edx
 8049d4b:	74 05                	je     8049d52 <init_driver+0x1cb>
 8049d4d:	e8 3e ea ff ff       	call   8048790 <__stack_chk_fail@plt>
 8049d52:	83 c4 20             	add    $0x20,%esp
 8049d55:	5b                   	pop    %ebx
 8049d56:	5e                   	pop    %esi
 8049d57:	5f                   	pop    %edi
 8049d58:	c3                   	ret    

08049d59 <driver_post>:
 8049d59:	53                   	push   %ebx
 8049d5a:	83 ec 08             	sub    $0x8,%esp
 8049d5d:	8b 44 24 10          	mov    0x10(%esp),%eax
 8049d61:	8b 5c 24 1c          	mov    0x1c(%esp),%ebx
 8049d65:	83 7c 24 18 00       	cmpl   $0x0,0x18(%esp)
 8049d6a:	74 26                	je     8049d92 <driver_post+0x39>
 8049d6c:	83 ec 04             	sub    $0x4,%esp
 8049d6f:	ff 74 24 18          	pushl  0x18(%esp)
 8049d73:	68 5a a3 04 08       	push   $0x804a35a
 8049d78:	6a 01                	push   $0x1
 8049d7a:	e8 c1 ea ff ff       	call   8048840 <__printf_chk@plt>
 8049d7f:	66 c7 03 4f 4b       	movw   $0x4b4f,(%ebx)
 8049d84:	c6 43 02 00          	movb   $0x0,0x2(%ebx)
 8049d88:	83 c4 10             	add    $0x10,%esp
 8049d8b:	b8 00 00 00 00       	mov    $0x0,%eax
 8049d90:	eb 3e                	jmp    8049dd0 <driver_post+0x77>
 8049d92:	85 c0                	test   %eax,%eax
 8049d94:	74 2c                	je     8049dc2 <driver_post+0x69>
 8049d96:	80 38 00             	cmpb   $0x0,(%eax)
 8049d99:	74 27                	je     8049dc2 <driver_post+0x69>
 8049d9b:	83 ec 04             	sub    $0x4,%esp
 8049d9e:	53                   	push   %ebx
 8049d9f:	ff 74 24 1c          	pushl  0x1c(%esp)
 8049da3:	68 71 a3 04 08       	push   $0x804a371
 8049da8:	50                   	push   %eax
 8049da9:	68 79 a3 04 08       	push   $0x804a379
 8049dae:	68 6e 3b 00 00       	push   $0x3b6e
 8049db3:	68 4c a3 04 08       	push   $0x804a34c
 8049db8:	e8 cb f5 ff ff       	call   8049388 <submitr>
 8049dbd:	83 c4 20             	add    $0x20,%esp
 8049dc0:	eb 0e                	jmp    8049dd0 <driver_post+0x77>
 8049dc2:	66 c7 03 4f 4b       	movw   $0x4b4f,(%ebx)
 8049dc7:	c6 43 02 00          	movb   $0x0,0x2(%ebx)
 8049dcb:	b8 00 00 00 00       	mov    $0x0,%eax
 8049dd0:	83 c4 08             	add    $0x8,%esp
 8049dd3:	5b                   	pop    %ebx
 8049dd4:	c3                   	ret    
 8049dd5:	66 90                	xchg   %ax,%ax
 8049dd7:	66 90                	xchg   %ax,%ax
 8049dd9:	66 90                	xchg   %ax,%ax
 8049ddb:	66 90                	xchg   %ax,%ax
 8049ddd:	66 90                	xchg   %ax,%ax
 8049ddf:	90                   	nop

08049de0 <__libc_csu_init>:
 8049de0:	55                   	push   %ebp
 8049de1:	57                   	push   %edi
 8049de2:	56                   	push   %esi
 8049de3:	53                   	push   %ebx
 8049de4:	e8 27 eb ff ff       	call   8048910 <__x86.get_pc_thunk.bx>
 8049de9:	81 c3 17 22 00 00    	add    $0x2217,%ebx
 8049def:	83 ec 0c             	sub    $0xc,%esp
 8049df2:	8b 6c 24 20          	mov    0x20(%esp),%ebp
 8049df6:	8d b3 0c ff ff ff    	lea    -0xf4(%ebx),%esi
 8049dfc:	e8 f3 e8 ff ff       	call   80486f4 <_init>
 8049e01:	8d 83 08 ff ff ff    	lea    -0xf8(%ebx),%eax
 8049e07:	29 c6                	sub    %eax,%esi
 8049e09:	c1 fe 02             	sar    $0x2,%esi
 8049e0c:	85 f6                	test   %esi,%esi
 8049e0e:	74 25                	je     8049e35 <__libc_csu_init+0x55>
 8049e10:	31 ff                	xor    %edi,%edi
 8049e12:	8d b6 00 00 00 00    	lea    0x0(%esi),%esi
 8049e18:	83 ec 04             	sub    $0x4,%esp
 8049e1b:	ff 74 24 2c          	pushl  0x2c(%esp)
 8049e1f:	ff 74 24 2c          	pushl  0x2c(%esp)
 8049e23:	55                   	push   %ebp
 8049e24:	ff 94 bb 08 ff ff ff 	call   *-0xf8(%ebx,%edi,4)
 8049e2b:	83 c7 01             	add    $0x1,%edi
 8049e2e:	83 c4 10             	add    $0x10,%esp
 8049e31:	39 f7                	cmp    %esi,%edi
 8049e33:	75 e3                	jne    8049e18 <__libc_csu_init+0x38>
 8049e35:	83 c4 0c             	add    $0xc,%esp
 8049e38:	5b                   	pop    %ebx
 8049e39:	5e                   	pop    %esi
 8049e3a:	5f                   	pop    %edi
 8049e3b:	5d                   	pop    %ebp
 8049e3c:	c3                   	ret    
 8049e3d:	8d 76 00             	lea    0x0(%esi),%esi

08049e40 <__libc_csu_fini>:
 8049e40:	f3 c3                	repz ret 

Disassembly of section .fini:

08049e44 <_fini>:
 8049e44:	53                   	push   %ebx
 8049e45:	83 ec 08             	sub    $0x8,%esp
 8049e48:	e8 c3 ea ff ff       	call   8048910 <__x86.get_pc_thunk.bx>
 8049e4d:	81 c3 b3 21 00 00    	add    $0x21b3,%ebx
 8049e53:	83 c4 08             	add    $0x8,%esp
 8049e56:	5b                   	pop    %ebx
 8049e57:	c3                   	ret    
